(dp0
S'METTS MARK'
p1
(dp2
S'to_messages'
p3
I807
sS'deferral_payments'
p4
S'NaN'
p5
sS'expenses'
p6
F0.41221263928170204
sS'poi'
p7
I00
sS'number_of_missing_fields'
p8
I7
sS'deferred_income'
p9
F1.0
sS'email_address'
p10
S'mark.metts@enron.com'
p11
sS'long_term_incentive'
p12
g5
sS'restricted_stock_deferred'
p13
g5
sS'shared_receipt_with_poi'
p14
I702
sS'loan_advances'
p15
g5
sS'from_messages'
p16
I29
sS'other'
p17
I1740
sS'director_fees'
p18
g5
sS'bonus'
p19
I600000
sS'total_stock_value'
p20
I585062
sS'from_poi_to_this_person'
p21
I38
sS'from_this_person_to_poi'
p22
I1
sS'restricted_stock'
p23
I585062
sS'salary'
p24
I365788
sS'total_payments'
p25
I1061827
sS'exercised_stock_options'
p26
F0.0
ssS'BAXTER JOHN C'
p27
(dp28
g3
g5
sg4
I1295738
sg6
F0.04895896626639797
sg7
I00
sg8
I9
sg9
F0.6044799288662835
sg10
g5
sg12
I1586055
sg13
g5
sg14
g5
sg15
g5
sg16
g5
sg17
I2660303
sg18
g5
sg19
I1200000
sg20
I10623258
sg21
g5
sg22
g5
sg23
I3942714
sg24
I267102
sg25
I5634343
sg26
F0.1944936914644951
ssS'ELLIOTT STEVEN'
p29
(dp30
g3
g5
sg4
g5
sg6
F0.34337720697840124
sg7
I00
sg8
I10
sg9
F0.8856492977657142
sg10
S'steven.elliott@enron.com'
p31
sg12
g5
sg13
g5
sg14
g5
sg15
g5
sg16
g5
sg17
I12961
sg18
g5
sg19
I350000
sg20
I6678735
sg21
g5
sg22
g5
sg23
I1788391
sg24
I170941
sg25
I211725
sg26
F0.14237479119832827
ssS'CORDES WILLIAM R'
p32
(dp33
g3
I764
sg4
g5
sg6
F0.0
sg7
I00
sg8
I11
sg9
F1.0
sg10
S'bill.cordes@enron.com'
p34
sg12
g5
sg13
g5
sg14
I58
sg15
g5
sg16
I12
sg17
g5
sg18
g5
sg19
g5
sg20
I1038185
sg21
I10
sg22
I0
sg23
I386335
sg24
g5
sg25
g5
sg26
F0.018977603138476618
ssS'HANNON KEVIN P'
p35
(dp36
g3
I1045
sg4
g5
sg6
F0.14879591542338577
sg7
I01
sg8
I4
sg9
F0.11054004895579425
sg10
S'kevin.hannon@enron.com'
p37
sg12
I1617011
sg13
g5
sg14
I1035
sg15
g5
sg16
I32
sg17
I11350
sg18
g5
sg19
I1500000
sg20
I6391065
sg21
I32
sg22
I21
sg23
I853064
sg24
I243293
sg25
I288682
sg26
F0.1612303216360921
ssS'MORDAUNT KRISTINA M'
p38
(dp39
g3
g5
sg4
g5
sg6
F0.1530754536354218
sg7
I00
sg8
I12
sg9
F1.0
sg10
S'kristina.mordaunt@enron.com'
p40
sg12
g5
sg13
g5
sg14
g5
sg15
g5
sg16
g5
sg17
I1411
sg18
g5
sg19
I325000
sg20
I208510
sg21
g5
sg22
g5
sg23
I208510
sg24
I267093
sg25
I628522
sg26
F0.0
ssS'MEYER ROCKFORD G'
p41
(dp42
g3
I232
sg4
I1848227
sg6
F0.0
sg7
I00
sg8
I9
sg9
F1.0
sg10
S'rockford.meyer@enron.com'
p43
sg12
g5
sg13
g5
sg14
I22
sg15
g5
sg16
I28
sg17
g5
sg18
g5
sg19
g5
sg20
I955873
sg21
I0
sg22
I0
sg23
I462384
sg24
g5
sg25
I1848227
sg26
F0.014367167899369006
ssS'MCMAHON JEFFREY'
p44
(dp45
g3
I2355
sg4
g5
sg6
F0.5993451738261869
sg7
I00
sg8
I5
sg9
F1.0
sg10
S'jeffrey.mcmahon@enron.com'
p46
sg12
I694862
sg13
g5
sg14
I2228
sg15
g5
sg16
I48
sg17
I297353
sg18
g5
sg19
I2600000
sg20
I1662855
sg21
I58
sg22
I26
sg23
I558801
sg24
I370448
sg25
I4099771
sg26
F0.03214282220671575
ssS'HORTON STANLEY C'
p47
(dp48
g3
I2350
sg4
I3131860
sg6
F0.0
sg7
I00
sg8
I9
sg9
F1.0
sg10
S'stanley.horton@enron.com'
p49
sg12
g5
sg13
g5
sg14
I1074
sg15
g5
sg16
I1073
sg17
g5
sg18
g5
sg19
g5
sg20
I7256648
sg21
I44
sg22
I15
sg23
I2046079
sg24
g5
sg25
I3131860
sg26
F0.15169764609595607
ssS'PIPER GREGORY F'
p50
(dp51
g3
I1238
sg4
I1130036
sg6
F0.1882166259403837
sg7
I00
sg8
I3
sg9
F0.9904882053518077
sg10
S'greg.piper@enron.com'
p52
sg12
g5
sg13
I-409554
sg14
I742
sg15
g5
sg16
I222
sg17
I778
sg18
g5
sg19
I400000
sg20
I880290
sg21
I61
sg22
I48
sg23
I409554
sg24
I197091
sg25
I1737629
sg26
F0.025628279921407655
ssS'HUMPHREY GENE E'
p53
(dp54
g3
I128
sg4
I2964506
sg6
F0.021830453351284956
sg7
I00
sg8
I8
sg9
F1.0
sg10
S'gene.humphrey@enron.com'
p55
sg12
g5
sg13
g5
sg14
I119
sg15
g5
sg16
I17
sg17
g5
sg18
g5
sg19
g5
sg20
I2282768
sg21
I10
sg22
I17
sg23
g5
sg24
I130724
sg25
I3100224
sg26
F0.0664592546770177
ssS'UMANOFF ADAM S'
p56
(dp57
g3
I111
sg4
g5
sg6
F0.2322141255360351
sg7
I00
sg8
I10
sg9
F1.0
sg10
S'adam.umanoff@enron.com'
p58
sg12
g5
sg13
g5
sg14
I41
sg15
g5
sg16
I18
sg17
g5
sg18
g5
sg19
I788750
sg20
g5
sg21
I12
sg22
I0
sg23
g5
sg24
I288589
sg25
I1130461
sg26
F0.0
ssS'BLACHMAN JEREMY M'
p59
(dp60
g3
I2475
sg4
g5
sg6
F0.3681014849429322
sg7
I00
sg8
I5
sg9
F1.0
sg10
S'jeremy.blachman@enron.com'
p61
sg12
I831809
sg13
g5
sg14
I2326
sg15
g5
sg16
I14
sg17
I272
sg18
g5
sg19
I850000
sg20
I954354
sg21
I25
sg22
I2
sg23
I189041
sg24
I248546
sg25
I2014835
sg26
F0.022280902647414214
ssS'SUNDE MARTIN'
p62
(dp63
g3
I2647
sg4
g5
sg6
F0.0
sg7
I00
sg8
I7
sg9
F1.0
sg10
S'marty.sunde@enron.com'
p64
sg12
I476451
sg13
g5
sg14
I2565
sg15
g5
sg16
I38
sg17
I111122
sg18
g5
sg19
I700000
sg20
I698920
sg21
I37
sg22
I13
sg23
I698920
sg24
I257486
sg25
I1545059
sg26
F0.0
ssS'GIBBS DANA R'
p65
(dp66
g3
I169
sg4
I504610
sg6
F0.0
sg7
I00
sg8
I9
sg9
F1.0
sg10
S'dana.gibbs@enron.com'
p67
sg12
I461912
sg13
g5
sg14
I23
sg15
g5
sg16
I12
sg17
g5
sg18
g5
sg19
g5
sg20
I2218275
sg21
I0
sg22
I0
sg23
g5
sg24
g5
sg25
I966522
sg26
F0.06458164087137258
ssS'LOWRY CHARLES P'
p68
(dp69
g3
g5
sg4
g5
sg6
F0.0
sg7
I00
sg8
I16
sg9
F1.0
sg10
g5
sg12
g5
sg13
I-153686
sg14
g5
sg15
g5
sg16
g5
sg17
g5
sg18
g5
sg19
g5
sg20
I372205
sg21
g5
sg22
g5
sg23
I153686
sg24
g5
sg25
g5
sg26
F0.010836172088911083
ssS'COLWELL WESLEY'
p70
(dp71
g3
I1758
sg4
I27610
sg6
F0.0721882472252943
sg7
I01
sg8
I5
sg9
F0.9588909440912046
sg10
S'wes.colwell@enron.com'
p72
sg12
g5
sg13
g5
sg14
I1132
sg15
g5
sg16
I40
sg17
I101740
sg18
g5
sg19
I1200000
sg20
I698242
sg21
I240
sg22
I11
sg23
I698242
sg24
I288542
sg25
I1490344
sg26
F0.0
ssS'MULLER MARK S'
p73
(dp74
g3
I136
sg4
I842924
sg6
F0.0
sg7
I00
sg8
I4
sg9
F0.7948285377238694
sg10
S's..muller@enron.com'
p75
sg12
I1725545
sg13
g5
sg14
I114
sg15
g5
sg16
I16
sg17
I947
sg18
g5
sg19
I1100000
sg20
I1416848
sg21
I12
sg22
I0
sg23
I360528
sg24
I251654
sg25
I3202070
sg26
F0.030753120729056716
ssS'JACKSON CHARLENE R'
p76
(dp77
g3
I258
sg4
g5
sg6
F0.044504574603410514
sg7
I00
sg8
I6
sg9
F1.0
sg10
S'charlene.jackson@enron.com'
p78
sg12
g5
sg13
g5
sg14
I117
sg15
g5
sg16
I56
sg17
I2435
sg18
g5
sg19
I250000
sg20
I725735
sg21
I25
sg22
I19
sg23
I540672
sg24
I288558
sg25
I551174
sg26
F0.005387822611974991
ssS'WESTFAHL RICHARD K'
p79
(dp80
g3
g5
sg4
g5
sg6
F0.22674121252125562
sg7
I00
sg8
I11
sg9
F0.9969181477154628
sg10
S'dick.westfahl@enron.com'
p81
sg12
I256191
sg13
g5
sg14
g5
sg15
g5
sg16
g5
sg17
I401130
sg18
g5
sg19
g5
sg20
I384930
sg21
g5
sg22
g5
sg23
I384930
sg24
I63744
sg25
I762135
sg26
F0.0
ssS'WALTERS GARETH W'
p82
(dp83
g3
g5
sg4
I53625
sg6
F0.14768559600984424
sg7
I00
sg8
I15
sg9
F1.0
sg10
g5
sg12
g5
sg13
g5
sg14
g5
sg15
g5
sg16
g5
sg17
g5
sg18
g5
sg19
g5
sg20
I1030329
sg21
g5
sg22
g5
sg23
g5
sg24
g5
sg25
I87410
sg26
F0.02999643301996391
ssS'WALLS JR ROBERT H'
p84
(dp85
g3
I671
sg4
g5
sg6
F0.22265838444153993
sg7
I00
sg8
I5
sg9
F1.0
sg10
S'rob.walls@enron.com'
p86
sg12
I540751
sg13
g5
sg14
I215
sg15
g5
sg16
I146
sg17
I2
sg18
g5
sg19
I850000
sg20
I5898997
sg21
I17
sg22
I0
sg23
I1552453
sg24
I357091
sg25
I1798780
sg26
F0.1265428964576616
ssS'KITCHEN LOUISE'
p87
(dp88
g3
I8305
sg4
g5
sg6
F0.02524009564483767
sg7
I00
sg8
I6
sg9
F1.0
sg10
S'louise.kitchen@enron.com'
p89
sg12
g5
sg13
g5
sg14
I3669
sg15
g5
sg16
I1728
sg17
I93925
sg18
g5
sg19
I3100000
sg20
I547143
sg21
I251
sg22
I194
sg23
I466101
sg24
I271442
sg25
I3471141
sg26
F0.002359412308887661
ssS'CHAN RONNIE'
p90
(dp91
g3
g5
sg4
g5
sg6
F0.0
sg7
I00
sg8
I16
sg9
F0.9718113244374336
sg10
g5
sg12
g5
sg13
I-32460
sg14
g5
sg15
g5
sg16
g5
sg17
g5
sg18
I98784
sg19
g5
sg20
g5
sg21
g5
sg22
g5
sg23
I32460
sg24
g5
sg25
g5
sg26
F0.0
ssS'BELFER ROBERT'
p92
(dp93
g3
g5
sg4
I-102500
sg6
F0.0
sg7
I00
sg8
I14
sg9
F1.0
sg10
g5
sg12
g5
sg13
I44093
sg14
g5
sg15
g5
sg16
g5
sg17
g5
sg18
I3285
sg19
g5
sg20
I-44093
sg21
g5
sg22
g5
sg23
g5
sg24
g5
sg25
I102500
sg26
F9.56376870597464e-05
ssS'SHANKMAN JEFFREY A'
p94
(dp95
g3
I3221
sg4
g5
sg6
F0.782377394945861
sg7
I00
sg8
I5
sg9
F1.0
sg10
S'jeffrey.shankman@enron.com'
p96
sg12
I554422
sg13
g5
sg14
I1730
sg15
g5
sg16
I2681
sg17
I1191
sg18
g5
sg19
I2000000
sg20
I2072035
sg21
I94
sg22
I83
sg23
I630137
sg24
I304110
sg25
I3038702
sg26
F0.041978627000327
ssS'WODRASKA JOHN'
p97
(dp98
g3
g5
sg4
g5
sg6
F0.0
sg7
I00
sg8
I17
sg9
F1.0
sg10
S'john.wodraska@enron.com'
p99
sg12
g5
sg13
g5
sg14
g5
sg15
g5
sg16
g5
sg17
I189583
sg18
g5
sg19
g5
sg20
g5
sg21
g5
sg22
g5
sg23
g5
sg24
g5
sg25
I189583
sg26
F0.0
ssS'BERGSIEKER RICHARD P'
p100
(dp101
g3
I383
sg4
g5
sg6
F0.25867382400125893
sg7
I00
sg8
I5
sg9
F0.8613700088974217
sg10
S'rick.bergsieker@enron.com'
p102
sg12
I180250
sg13
g5
sg14
I233
sg15
g5
sg16
I59
sg17
I427316
sg18
g5
sg19
I250000
sg20
I659249
sg21
I4
sg22
I0
sg23
I659249
sg24
I187922
sg25
I618850
sg26
F0.0
ssS'URQUHART JOHN A'
p103
(dp104
g3
g5
sg4
g5
sg6
F0.9995322670187049
sg7
I00
sg8
I16
sg9
F0.9895371114939964
sg10
g5
sg12
g5
sg13
g5
sg14
g5
sg15
g5
sg16
g5
sg17
g5
sg18
I36666
sg19
g5
sg20
g5
sg21
g5
sg22
g5
sg23
g5
sg24
g5
sg25
I228656
sg26
F0.0
ssS'BIBI PHILIPPE A'
p105
(dp106
g3
I1607
sg4
g5
sg6
F0.1685543553808964
sg7
I00
sg8
I5
sg9
F1.0
sg10
S'philippe.bibi@enron.com'
p107
sg12
I369721
sg13
g5
sg14
I1336
sg15
g5
sg16
I40
sg17
I425688
sg18
g5
sg19
I1000000
sg20
I1843816
sg21
I23
sg22
I8
sg23
I378082
sg24
I213625
sg25
I2047593
sg26
F0.04267257522217057
ssS'RIEKER PAULA H'
p108
(dp109
g3
I1328
sg4
I214678
sg6
F0.1454387291651185
sg7
I01
sg8
I4
sg9
F0.9714643306987301
sg10
S'paula.rieker@enron.com'
p110
sg12
g5
sg13
g5
sg14
I1258
sg15
g5
sg16
I82
sg17
I1950
sg18
g5
sg19
I700000
sg20
I1918887
sg21
I35
sg22
I48
sg23
I283649
sg24
I249201
sg25
I1099100
sg26
F0.04760742164755116
ssS'WHALEY DAVID A'
p111
(dp112
g3
g5
sg4
g5
sg6
F0.0
sg7
I00
sg8
I18
sg9
F1.0
sg10
g5
sg12
g5
sg13
g5
sg14
g5
sg15
g5
sg16
g5
sg17
g5
sg18
g5
sg19
g5
sg20
I98718
sg21
g5
sg22
g5
sg23
g5
sg24
g5
sg25
g5
sg26
F0.002874021671587228
ssS'BECK SALLY W'
p113
(dp114
g3
I7315
sg4
g5
sg6
F0.16249131196915584
sg7
I00
sg8
I7
sg9
F1.0
sg10
S'sally.beck@enron.com'
p115
sg12
g5
sg13
g5
sg14
I2639
sg15
g5
sg16
I4343
sg17
I566
sg18
g5
sg19
I700000
sg20
I126027
sg21
I144
sg22
I386
sg23
I126027
sg24
I231330
sg25
I969068
sg26
F0.0
ssS'HAUG DAVID L'
p116
(dp117
g3
I573
sg4
g5
sg6
F0.0020763847300481284
sg7
I00
sg8
I10
sg9
F1.0
sg10
S'david.haug@enron.com'
p118
sg12
g5
sg13
g5
sg14
I471
sg15
g5
sg16
I19
sg17
g5
sg18
g5
sg19
g5
sg20
I2217299
sg21
I4
sg22
I7
sg23
I2217299
sg24
g5
sg25
I475
sg26
F0.0
ssS'ECHOLS JOHN B'
p119
(dp120
g3
g5
sg4
g5
sg6
F0.09411486997460254
sg7
I00
sg8
I10
sg9
F1.0
sg10
S'john.echols@enron.com'
p121
sg12
I2234774
sg13
g5
sg14
g5
sg15
g5
sg16
g5
sg17
I53775
sg18
g5
sg19
I200000
sg20
I1008941
sg21
g5
sg22
g5
sg23
I407503
sg24
I182245
sg25
I2692324
sg26
F0.017509935838611795
ssS'MENDELSOHN JOHN'
p122
(dp123
g3
g5
sg4
g5
sg6
F0.0006469577685202589
sg7
I00
sg8
I16
sg9
F0.9703942430999325
sg10
g5
sg12
g5
sg13
g5
sg14
g5
sg15
g5
sg16
g5
sg17
g5
sg18
I103750
sg19
g5
sg20
g5
sg21
g5
sg22
g5
sg23
g5
sg24
g5
sg25
I148
sg26
F0.0
ssS'HICKERSON GARY J'
p124
(dp125
g3
I1320
sg4
g5
sg6
F0.4321022193274262
sg7
I00
sg8
I6
sg9
F1.0
sg10
S'gary.hickerson@enron.com'
p126
sg12
I69223
sg13
g5
sg14
I900
sg15
g5
sg16
I27
sg17
I1936
sg18
g5
sg19
I1700000
sg20
I441096
sg21
I40
sg22
I1
sg23
I441096
sg24
I211788
sg25
I2081796
sg26
F0.0
ssS'CLINE KENNETH W'
p127
(dp128
g3
g5
sg4
g5
sg6
F0.0
sg7
I00
sg8
I17
sg9
F1.0
sg10
g5
sg12
g5
sg13
I-472568
sg14
g5
sg15
g5
sg16
g5
sg17
g5
sg18
g5
sg19
g5
sg20
I189518
sg21
g5
sg22
g5
sg23
I662086
sg24
g5
sg25
g5
sg26
F0.0
ssS'LEWIS RICHARD'
p129
(dp130
g3
I952
sg4
g5
sg6
F0.0
sg7
I00
sg8
I12
sg9
F1.0
sg10
S'richard.lewis@enron.com'
p131
sg12
g5
sg13
g5
sg14
I739
sg15
g5
sg16
I26
sg17
g5
sg18
g5
sg19
g5
sg20
I850477
sg21
I10
sg22
I0
sg23
g5
sg24
g5
sg25
g5
sg26
F0.024760320601982324
ssS'HAYES ROBERT E'
p132
(dp133
g3
I504
sg4
I7961
sg6
F0.0
sg7
I00
sg8
I10
sg9
F1.0
sg10
S'robert.hayes@enron.com'
p134
sg12
g5
sg13
g5
sg14
I50
sg15
g5
sg16
I12
sg17
g5
sg18
g5
sg19
g5
sg20
I151418
sg21
I16
sg22
I0
sg23
I151418
sg24
g5
sg25
I7961
sg26
F0.0
ssS'MCCARTY DANNY J'
p135
(dp136
g3
I1433
sg4
g5
sg6
F0.0
sg7
I00
sg8
I11
sg9
F1.0
sg10
S'danny.mccarty@enron.com'
p137
sg12
g5
sg13
g5
sg14
I508
sg15
g5
sg16
I215
sg17
g5
sg18
g5
sg19
g5
sg20
I758931
sg21
I25
sg22
I2
sg23
I94556
sg24
g5
sg25
g5
sg26
F0.019342249114252363
ssS'KOPPER MICHAEL J'
p138
(dp139
g3
g5
sg4
g5
sg6
F0.5164034393673802
sg7
I01
sg8
I11
sg9
F1.0
sg10
S'michael.kopper@enron.com'
p140
sg12
I602671
sg13
g5
sg14
g5
sg15
g5
sg16
g5
sg17
I907502
sg18
g5
sg19
I800000
sg20
I985032
sg21
g5
sg22
g5
sg23
I985032
sg24
I224305
sg25
I2652612
sg26
F0.0
ssS'LEFF DANIEL P'
p141
(dp142
g3
I2822
sg4
g5
sg6
F0.0
sg7
I00
sg8
I7
sg9
F1.0
sg10
S'dan.leff@enron.com'
p143
sg12
I1387399
sg13
g5
sg14
I2672
sg15
g5
sg16
I63
sg17
I3083
sg18
g5
sg19
I1000000
sg20
I360528
sg21
I67
sg22
I14
sg23
I360528
sg24
I273746
sg25
I2664228
sg26
F0.0
ssS'LAVORATO JOHN J'
p144
(dp145
g3
I7259
sg4
g5
sg6
F0.21654288499451396
sg7
I00
sg8
I5
sg9
F1.0
sg10
S'john.lavorato@enron.com'
p146
sg12
I2035380
sg13
g5
sg14
I3962
sg15
g5
sg16
I2585
sg17
I1552
sg18
g5
sg19
I8000000
sg20
I5167144
sg21
I528
sg22
I411
sg23
I1008149
sg24
I339288
sg25
I10425757
sg26
F0.12108269780610348
ssS'BERBERIAN DAVID'
p147
(dp148
g3
g5
sg4
g5
sg6
F0.05198393096785756
sg7
I00
sg8
I13
sg9
F1.0
sg10
S'david.berberian@enron.com'
p149
sg12
g5
sg13
g5
sg14
g5
sg15
g5
sg16
g5
sg17
g5
sg18
g5
sg19
g5
sg20
I2493616
sg21
g5
sg22
g5
sg23
I869220
sg24
I216582
sg25
I228474
sg26
F0.04729177361007726
ssS'DETMERING TIMOTHY J'
p150
(dp151
g3
g5
sg4
I875307
sg6
F0.22842417698666306
sg7
I00
sg8
I7
sg9
F0.7787797919521423
sg10
S'timothy.detmering@enron.com'
p152
sg12
I415657
sg13
I-315068
sg14
g5
sg15
g5
sg16
g5
sg17
I1105
sg18
g5
sg19
I425000
sg20
I2027865
sg21
g5
sg22
g5
sg23
I315068
sg24
I210500
sg25
I1204583
sg26
F0.05903814863604646
ssS'WAKEHAM JOHN'
p153
(dp154
g3
g5
sg4
g5
sg6
F0.4536266791395462
sg7
I00
sg8
I17
sg9
F1.0
sg10
g5
sg12
g5
sg13
g5
sg14
g5
sg15
g5
sg16
g5
sg17
g5
sg18
I109298
sg19
g5
sg20
g5
sg21
g5
sg22
g5
sg23
g5
sg24
g5
sg25
I213071
sg26
F0.0
ssS'POWERS WILLIAM'
p155
(dp156
g3
I653
sg4
g5
sg6
F0.0
sg7
I00
sg8
I12
sg9
F0.9950062578722778
sg10
S'ken.powers@enron.com'
p157
sg12
g5
sg13
g5
sg14
I12
sg15
g5
sg16
I26
sg17
g5
sg18
I17500
sg19
g5
sg20
g5
sg21
I0
sg22
I0
sg23
g5
sg24
g5
sg25
g5
sg26
F0.0
ssS'GOLD JOSEPH'
p158
(dp159
g3
g5
sg4
g5
sg6
F0.0
sg7
I00
sg8
I11
sg9
F1.0
sg10
S'joe.gold@enron.com'
p160
sg12
I304805
sg13
g5
sg14
g5
sg15
g5
sg16
g5
sg17
I819288
sg18
g5
sg19
I750000
sg20
I877611
sg21
g5
sg22
g5
sg23
I441096
sg24
I272880
sg25
I2146973
sg26
F0.01270845813299397
ssS'BANNANTINE JAMES M'
p161
(dp162
g3
I566
sg4
g5
sg6
F0.24611060355039932
sg7
I00
sg8
I5
sg9
F0.9985435394388632
sg10
S'james.bannantine@enron.com'
p163
sg12
g5
sg13
I-560222
sg14
I465
sg15
g5
sg16
I29
sg17
I864523
sg18
g5
sg19
g5
sg20
I5243487
sg21
I39
sg22
I0
sg23
I1757552
sg24
I477
sg25
I916197
sg26
F0.11779759420414072
ssS'DUNCAN JOHN H'
p164
(dp165
g3
g5
sg4
g5
sg6
F0.0
sg7
I00
sg8
I15
sg9
F0.9928660826746826
sg10
g5
sg12
g5
sg13
g5
sg14
g5
sg15
g5
sg16
g5
sg17
g5
sg18
I102492
sg19
g5
sg20
I371750
sg21
g5
sg22
g5
sg23
g5
sg24
g5
sg25
I77492
sg26
F0.0108229254686334
ssS'SHAPIRO RICHARD S'
p166
(dp167
g3
I15149
sg4
g5
sg6
F0.6022258844306116
sg7
I00
sg8
I6
sg9
F1.0
sg10
S'richard.shapiro@enron.com'
p168
sg12
g5
sg13
g5
sg14
I4527
sg15
g5
sg16
I1215
sg17
I705
sg18
g5
sg19
I650000
sg20
I987001
sg21
I74
sg22
I65
sg23
I379164
sg24
I269076
sg25
I1057548
sg26
F0.017696232812582972
ssS'SHERRIFF JOHN R'
p169
(dp170
g3
I3187
sg4
g5
sg6
F0.0
sg7
I00
sg8
I6
sg9
F1.0
sg10
S'john.sherriff@enron.com'
p171
sg12
I554422
sg13
g5
sg14
I2103
sg15
g5
sg16
I92
sg17
I1852186
sg18
g5
sg19
I1500000
sg20
I3128982
sg21
I28
sg22
I23
sg23
I1293424
sg24
I428780
sg25
I4335388
sg26
F0.05343942818387031
ssS'SHELBY REX'
p172
(dp173
g3
I225
sg4
g5
sg6
F0.10003365928930814
sg7
I01
sg8
I5
sg9
F0.9988109186602161
sg10
S'rex.shelby@enron.com'
p174
sg12
g5
sg13
g5
sg14
I91
sg15
g5
sg16
I39
sg17
I1573324
sg18
g5
sg19
I200000
sg20
I2493616
sg21
I13
sg22
I14
sg23
I869220
sg24
I211844
sg25
I2003885
sg26
F0.04729177361007726
ssS'LEMAISTRE CHARLES'
p175
(dp176
g3
g5
sg4
g5
sg6
F0.0
sg7
I00
sg8
I15
sg9
F0.9928660826746826
sg10
g5
sg12
g5
sg13
g5
sg14
g5
sg15
g5
sg16
g5
sg17
g5
sg18
I112492
sg19
g5
sg20
I412878
sg21
g5
sg22
g5
sg23
g5
sg24
g5
sg25
I87492
sg26
F0.012020303487931193
ssS'DEFFNER JOSEPH M'
p177
(dp178
g3
I714
sg4
g5
sg6
F0.18196124373259662
sg7
I00
sg8
I5
sg9
F1.0
sg10
S'joseph.deffner@enron.com'
p179
sg12
I335349
sg13
g5
sg14
I552
sg15
g5
sg16
I74
sg17
I25553
sg18
g5
sg19
I600000
sg20
I159211
sg21
I115
sg22
I4
sg23
I141833
sg24
I206121
sg25
I1208649
sg26
F0.0005059335542539643
ssS'KISHKILL JOSEPH G'
p180
(dp181
g3
g5
sg4
g5
sg6
F0.5085394054108401
sg7
I00
sg8
I12
sg9
F0.9854348236752458
sg10
S'joe.kishkill@enron.com'
p182
sg12
g5
sg13
g5
sg14
g5
sg15
g5
sg16
g5
sg17
I465357
sg18
g5
sg19
g5
sg20
I1034346
sg21
g5
sg22
g5
sg23
I1034346
sg24
I174246
sg25
I704896
sg26
F0.0
ssS'WHALLEY LAWRENCE G'
p183
(dp184
g3
I6019
sg4
g5
sg6
F0.25282934740320767
sg7
I00
sg8
I5
sg9
F1.0
sg10
S'greg.whalley@enron.com'
p185
sg12
I808346
sg13
g5
sg14
I3920
sg15
g5
sg16
I556
sg17
I301026
sg18
g5
sg19
I3000000
sg20
I6079137
sg21
I186
sg22
I24
sg23
I2796177
sg24
I510364
sg25
I4677574
sg26
F0.09557829561938053
ssS'MCCONNELL MICHAEL S'
p186
(dp187
g3
I3329
sg4
g5
sg6
F0.3556694045802862
sg7
I00
sg8
I5
sg9
F1.0
sg10
S'mike.mcconnell@enron.com'
p188
sg12
I554422
sg13
g5
sg14
I2189
sg15
g5
sg16
I2742
sg17
I540
sg18
g5
sg19
I1100000
sg20
I3101279
sg21
I92
sg22
I194
sg23
I1478269
sg24
I365038
sg25
I2101364
sg26
F0.04725142236676986
ssS'PIRO JIM'
p189
(dp190
g3
I58
sg4
g5
sg6
F0.0
sg7
I00
sg8
I12
sg9
F1.0
sg10
S'jim.piro@enron.com'
p191
sg12
g5
sg13
g5
sg14
I3
sg15
g5
sg16
I16
sg17
g5
sg18
g5
sg19
g5
sg20
I47304
sg21
I0
sg22
I1
sg23
I47304
sg24
g5
sg25
g5
sg26
F0.0
ssS'DELAINEY DAVID W'
p192
(dp193
g3
I3093
sg4
g5
sg6
F0.3766955320571946
sg7
I01
sg8
I5
sg9
F1.0
sg10
S'david.delainey@enron.com'
p194
sg12
I1294981
sg13
g5
sg14
I2097
sg15
g5
sg16
I3069
sg17
I1661
sg18
g5
sg19
I3000000
sg20
I3614261
sg21
I66
sg22
I609
sg23
I1323148
sg24
I365163
sg25
I4747979
sg26
F0.06670220642694573
ssS'SULLIVAN-SHAKLOVITZ COLLEEN'
p195
(dp196
g3
g5
sg4
I181993
sg6
F0.0
sg7
I00
sg8
I12
sg9
F1.0
sg10
g5
sg12
I554422
sg13
g5
sg14
g5
sg15
g5
sg16
g5
sg17
I162
sg18
g5
sg19
I100000
sg20
I1362375
sg21
g5
sg22
g5
sg23
g5
sg24
I162779
sg25
I999356
sg26
F0.03966343802375099
ssS'WROBEL BRUCE'
p197
(dp198
g3
g5
sg4
g5
sg6
F0.0
sg7
I00
sg8
I18
sg9
F1.0
sg10
g5
sg12
g5
sg13
g5
sg14
g5
sg15
g5
sg16
g5
sg17
g5
sg18
g5
sg19
g5
sg20
I139130
sg21
g5
sg22
g5
sg23
g5
sg24
g5
sg25
g5
sg26
F0.004050554459854647
ssS'LINDHOLM TOD A'
p199
(dp200
g3
g5
sg4
I204075
sg6
F0.25234412907681747
sg7
I00
sg8
I9
sg9
F1.0
sg10
S'tod.lindholm@enron.com'
p201
sg12
I175000
sg13
g5
sg14
g5
sg15
g5
sg16
g5
sg17
I2630
sg18
g5
sg19
I200000
sg20
I3064208
sg21
g5
sg22
g5
sg23
I514847
sg24
I236457
sg25
I875889
sg26
F0.0742206969620463
ssS'MEYER JEROME J'
p202
(dp203
g3
g5
sg4
g5
sg6
F0.009402744324912683
sg7
I00
sg8
I16
sg9
F0.989057712249735
sg10
g5
sg12
g5
sg13
g5
sg14
g5
sg15
g5
sg16
g5
sg17
g5
sg18
I38346
sg19
g5
sg20
g5
sg21
g5
sg22
g5
sg23
g5
sg24
g5
sg25
I2151
sg26
F0.0
ssS'LAY KENNETH L'
p204
(dp205
g3
I4273
sg4
I202911
sg6
F0.4363992428845574
sg7
I01
sg8
I2
sg9
F0.9143929920961903
sg10
S'kenneth.lay@enron.com'
p206
sg12
I3600000
sg13
g5
sg14
I2411
sg15
I81525000
sg16
I36
sg17
I10359729
sg18
g5
sg19
I7000000
sg20
I49110078
sg21
I123
sg22
I16
sg23
I14761694
sg24
I1072321
sg25
I103559793
sg26
F1.0
ssS'BUTTS ROBERT H'
p207
(dp208
g3
g5
sg4
g5
sg6
F0.04113427433632187
sg7
I00
sg8
I10
sg9
F0.9785982480240476
sg10
S'bob.butts@enron.com'
p209
sg12
I175000
sg13
g5
sg14
g5
sg15
g5
sg16
g5
sg17
I150656
sg18
g5
sg19
I750000
sg20
I417619
sg21
g5
sg22
g5
sg23
I417619
sg24
I261516
sg25
I1271582
sg26
F0.0
ssS'OLSON CINDY K'
p210
(dp211
g3
I1184
sg4
I77716
sg6
F0.278851912241053
sg7
I00
sg8
I4
sg9
F1.0
sg10
S'cindy.olson@enron.com'
p212
sg12
I100000
sg13
g5
sg14
I856
sg15
g5
sg16
I52
sg17
I972
sg18
g5
sg19
I750000
sg20
I2606763
sg21
I20
sg22
I15
sg23
I969729
sg24
I329078
sg25
I1321557
sg26
F0.047659709405834055
ssS'MCDONALD REBECCA'
p213
(dp214
g3
I894
sg4
g5
sg6
F0.0
sg7
I00
sg8
I11
sg9
F1.0
sg10
S'rebecca.mcdonald@enron.com'
p215
sg12
g5
sg13
g5
sg14
I720
sg15
g5
sg16
I13
sg17
g5
sg18
g5
sg19
g5
sg20
I1691366
sg21
I54
sg22
I1
sg23
I934065
sg24
g5
sg25
g5
sg26
F0.022047645676722374
ssS'CUMBERLAND MICHAEL S'
p216
(dp217
g3
g5
sg4
g5
sg6
F0.09767313770146396
sg7
I00
sg8
I12
sg9
F1.0
sg10
g5
sg12
I275000
sg13
g5
sg14
g5
sg15
g5
sg16
g5
sg17
I713
sg18
g5
sg19
I325000
sg20
I207940
sg21
g5
sg22
g5
sg23
I207940
sg24
I184899
sg25
I807956
sg26
F0.0
ssS'GAHN ROBERT S'
p218
(dp219
g3
g5
sg4
I73122
sg6
F0.21891652059117953
sg7
I00
sg8
I10
sg9
F0.9997026583258808
sg10
g5
sg12
g5
sg13
g5
sg14
g5
sg15
g5
sg16
g5
sg17
I76547
sg18
g5
sg19
I509870
sg20
I318607
sg21
g5
sg22
g5
sg23
I235370
sg24
I192008
sg25
I900585
sg26
F0.002423316334183291
ssS'MCCLELLAN GEORGE'
p220
(dp221
g3
I1744
sg4
g5
sg6
F1.0
sg7
I00
sg8
I5
sg9
F0.9643304133734126
sg10
S'george.mcclellan@enron.com'
p222
sg12
g5
sg13
g5
sg14
I1469
sg15
g5
sg16
I49
sg17
I51587
sg18
g5
sg19
I900000
sg20
I947861
sg21
I52
sg22
I0
sg23
I441096
sg24
I263413
sg25
I1318763
sg26
F0.014753678076965718
ssS'HERMANN ROBERT J'
p223
(dp224
g3
g5
sg4
g5
sg6
F0.21138470819144706
sg7
I00
sg8
I9
sg9
F0.9201001259564443
sg10
S'robert.hermann@enron.com'
p225
sg12
I150000
sg13
g5
sg14
g5
sg15
g5
sg16
g5
sg17
I416441
sg18
g5
sg19
I700000
sg20
I668132
sg21
g5
sg22
g5
sg23
I480632
sg24
I262663
sg25
I1297461
sg26
F0.005458772092451278
ssS'SCRIMSHAW MATTHEW'
p226
(dp227
g3
g5
sg4
g5
sg6
F0.0
sg7
I00
sg8
I17
sg9
F1.0
sg10
S'matthew.scrimshaw@enron.com'
p228
sg12
g5
sg13
g5
sg14
g5
sg15
g5
sg16
g5
sg17
g5
sg18
g5
sg19
g5
sg20
I759557
sg21
g5
sg22
g5
sg23
g5
sg24
g5
sg25
g5
sg26
F0.02211332562253875
ssS'GATHMANN WILLIAM D'
p229
(dp230
g3
g5
sg4
g5
sg6
F0.0
sg7
I00
sg8
I16
sg9
F1.0
sg10
g5
sg12
g5
sg13
I-72419
sg14
g5
sg15
g5
sg16
g5
sg17
g5
sg18
g5
sg19
g5
sg20
I1945360
sg21
g5
sg22
g5
sg23
I264013
sg24
g5
sg25
g5
sg26
F0.051058180786612846
ssS'HAEDICKE MARK E'
p231
(dp232
g3
I4009
sg4
I2157527
sg6
F0.3329603126379703
sg7
I00
sg8
I2
sg9
F0.7333387360867211
sg10
S'mark.haedicke@enron.com'
p233
sg12
I983346
sg13
I-329825
sg14
I1847
sg15
g5
sg16
I1941
sg17
I52382
sg18
g5
sg19
I1150000
sg20
I803094
sg21
I180
sg22
I61
sg23
I524169
sg24
I374125
sg25
I3859065
sg26
F0.017722813393491816
ssS'BOWEN JR RAYMOND M'
p234
(dp235
g3
I1858
sg4
g5
sg6
F0.28810165979638314
sg7
I01
sg8
I5
sg9
F0.9997622978747204
sg10
S'raymond.bowen@enron.com'
p236
sg12
I974293
sg13
g5
sg14
I1593
sg15
g5
sg16
I27
sg17
I1621
sg18
g5
sg19
I1350000
sg20
I252055
sg21
I140
sg22
I15
sg23
I252055
sg24
I278601
sg25
I2669589
sg26
F0.0
ssS'GILLIS JOHN'
p237
(dp238
g3
g5
sg4
g5
sg6
F0.0
sg7
I00
sg8
I17
sg9
F1.0
sg10
g5
sg12
g5
sg13
g5
sg14
g5
sg15
g5
sg16
g5
sg17
g5
sg18
g5
sg19
g5
sg20
I85641
sg21
g5
sg22
g5
sg23
I75838
sg24
g5
sg25
g5
sg26
F0.00028539916171893266
ssS'FITZGERALD JAY L'
p239
(dp240
g3
I936
sg4
g5
sg6
F0.10434379685526068
sg7
I00
sg8
I5
sg9
F1.0
sg10
S'jay.fitzgerald@enron.com'
p241
sg12
I556416
sg13
g5
sg14
I723
sg15
g5
sg16
I16
sg17
I285414
sg18
g5
sg19
I350000
sg20
I1621236
sg21
I1
sg22
I8
sg23
I956775
sg24
I199157
sg25
I1414857
sg26
F0.0193447528710521
ssS'MORAN MICHAEL P'
p242
(dp243
g3
I672
sg4
g5
sg6
F0.0
sg7
I00
sg8
I11
sg9
F1.0
sg10
S'michael.moran@enron.com'
p244
sg12
g5
sg13
g5
sg14
I127
sg15
g5
sg16
I19
sg17
g5
sg18
g5
sg19
g5
sg20
I221141
sg21
I0
sg22
I0
sg23
I161602
sg24
g5
sg25
g5
sg26
F0.0017333857685997687
ssS'REDMOND BRIAN L'
p245
(dp246
g3
I1671
sg4
g5
sg6
F0.0642105585256357
sg7
I00
sg8
I8
sg9
F1.0
sg10
S'brian.redmond@enron.com'
p247
sg12
g5
sg13
g5
sg14
I1063
sg15
g5
sg16
I221
sg17
g5
sg18
g5
sg19
g5
sg20
I7890324
sg21
I204
sg22
I49
sg23
I381285
sg24
I96840
sg25
I111529
sg26
F0.218614040183084
ssS'BAZELIDES PHILIP J'
p248
(dp249
g3
g5
sg4
I684694
sg6
F0.0
sg7
I00
sg8
I13
sg9
F1.0
sg10
g5
sg12
I93750
sg13
g5
sg14
g5
sg15
g5
sg16
g5
sg17
I874
sg18
g5
sg19
g5
sg20
I1599641
sg21
g5
sg22
g5
sg23
g5
sg24
I80818
sg25
I860136
sg26
F0.046571070126617896
ssS'BELDEN TIMOTHY N'
p250
(dp251
g3
I7991
sg4
I2144013
sg6
F0.07586454103154794
sg7
I01
sg8
I4
sg9
F0.33385363370359317
sg10
S'tim.belden@enron.com'
p252
sg12
g5
sg13
g5
sg14
I5521
sg15
g5
sg16
I484
sg17
I210698
sg18
g5
sg19
I5249999
sg20
I1110705
sg21
I228
sg22
I108
sg23
I157569
sg24
I213999
sg25
I5501630
sg26
F0.02774907838459009
ssS'DURAN WILLIAM D'
p253
(dp254
g3
I904
sg4
g5
sg6
F0.11271490581955998
sg7
I00
sg8
I5
sg9
F1.0
sg10
S'w.duran@enron.com'
p255
sg12
I1105218
sg13
g5
sg14
I599
sg15
g5
sg16
I12
sg17
I1568
sg18
g5
sg19
I750000
sg20
I1640910
sg21
I106
sg22
I3
sg23
I189041
sg24
I210692
sg25
I2093263
sg26
F0.04226891722184077
ssS'THORN TERENCE H'
p256
(dp257
g3
I266
sg4
I16586
sg6
F0.20171531235383344
sg7
I00
sg8
I5
sg9
F1.0
sg10
S'terence.thorn@enron.com'
p258
sg12
I200000
sg13
g5
sg14
I73
sg15
g5
sg16
I41
sg17
I426629
sg18
g5
sg19
g5
sg20
I4817796
sg21
I0
sg22
I0
sg23
I365320
sg24
I222093
sg25
I911453
sg26
F0.12962694256591517
ssS'FASTOW ANDREW S'
p259
(dp260
g3
g5
sg4
g5
sg6
F0.24444949576636082
sg7
I01
sg8
I10
sg9
F0.6044799288662835
sg10
S'andrew.fastow@enron.com'
p261
sg12
I1736055
sg13
g5
sg14
g5
sg15
g5
sg16
g5
sg17
I277464
sg18
g5
sg19
I1300000
sg20
I1794412
sg21
g5
sg22
g5
sg23
I1794412
sg24
I440698
sg25
I2424083
sg26
F0.0
ssS'FOY JOE'
p262
(dp263
g3
I57
sg4
I181755
sg6
F0.0
sg7
I00
sg8
I10
sg9
F1.0
sg10
S'tracy.foy@enron.com'
p264
sg12
g5
sg13
g5
sg14
I2
sg15
g5
sg16
I13
sg17
g5
sg18
g5
sg19
g5
sg20
I343434
sg21
I0
sg22
I0
sg23
g5
sg24
g5
sg25
I181755
sg26
F0.009998548985594198
ssS'CALGER CHRISTOPHER F'
p265
(dp266
g3
I2598
sg4
g5
sg6
F0.15657252265445024
sg7
I01
sg8
I5
sg9
F0.9250938680841665
sg10
S'christopher.calger@enron.com'
p267
sg12
I375304
sg13
g5
sg14
I2188
sg15
g5
sg16
I144
sg17
I486
sg18
g5
sg19
I1250000
sg20
I126027
sg21
I199
sg22
I25
sg23
I126027
sg24
I240189
sg25
I1639297
sg26
F0.0
ssS'RICE KENNETH D'
p268
(dp269
g3
I905
sg4
g5
sg6
F0.2052342380542308
sg7
I01
sg8
I4
sg9
F0.0
sg10
S'ken.rice@enron.com'
p270
sg12
I1617011
sg13
g5
sg14
I864
sg15
g5
sg16
I18
sg17
I174839
sg18
g5
sg19
I1750000
sg20
I22542539
sg21
I42
sg22
I4
sg23
I2748364
sg24
I420636
sg25
I505050
sg26
F0.5762767471098494
ssS'KAMINSKI WINCENTY J'
p271
(dp272
g3
I4607
sg4
g5
sg6
F0.36537814244436384
sg7
I00
sg8
I5
sg9
F1.0
sg10
S'vince.kaminski@enron.com'
p273
sg12
I323466
sg13
g5
sg14
I583
sg15
g5
sg16
I14368
sg17
I4669
sg18
g5
sg19
I400000
sg20
I976037
sg21
I41
sg22
I171
sg23
I126027
sg24
I275101
sg25
I1086821
sg26
F0.024746724620290726
ssS'COX DAVID'
p274
(dp275
g3
I102
sg4
g5
sg6
F0.12178979992393875
sg7
I00
sg8
I5
sg9
F0.9882290364132261
sg10
S'chip.cox@enron.com'
p276
sg12
g5
sg13
g5
sg14
I71
sg15
g5
sg16
I33
sg17
I494
sg18
g5
sg19
I800000
sg20
I495633
sg21
I0
sg22
I4
sg23
I378082
sg24
I314288
sg25
I1101393
sg26
F0.0034223152972786145
ssS'OVERDYKE JR JERE C'
p277
(dp278
g3
g5
sg4
g5
sg6
F0.08232974738047674
sg7
I00
sg8
I11
sg9
F1.0
sg10
S'jere.overdyke@enron.com'
p279
sg12
I135836
sg13
g5
sg14
g5
sg15
g5
sg16
g5
sg17
I176
sg18
g5
sg19
g5
sg20
I7307594
sg21
g5
sg22
g5
sg23
I2041016
sg24
I94941
sg25
I249787
sg26
F0.15332826138196196
ssS'PEREIRA PAULO V. FERRAZ'
p280
(dp281
g3
g5
sg4
g5
sg6
F0.12214387816211537
sg7
I00
sg8
I16
sg9
F0.9711076348324642
sg10
g5
sg12
g5
sg13
g5
sg14
g5
sg15
g5
sg16
g5
sg17
g5
sg18
I101250
sg19
g5
sg20
g5
sg21
g5
sg22
g5
sg23
g5
sg24
g5
sg25
I27942
sg26
F0.0
ssS'STABLER FRANK'
p282
(dp283
g3
g5
sg4
g5
sg6
F0.0721882472252943
sg7
I00
sg8
I12
sg9
F1.0
sg10
S'frank.stabler@enron.com'
p284
sg12
g5
sg13
g5
sg14
g5
sg15
g5
sg16
g5
sg17
I356071
sg18
g5
sg19
I500000
sg20
I511734
sg21
g5
sg22
g5
sg23
I511734
sg24
I239502
sg25
I1112087
sg26
F0.0
ssS'SKILLING JEFFREY K'
p285
(dp286
g3
I3627
sg4
g5
sg6
F0.1282375209277724
sg7
I01
sg8
I5
sg9
F1.0
sg10
S'jeff.skilling@enron.com'
p287
sg12
I1920000
sg13
g5
sg14
I2042
sg15
g5
sg16
I108
sg17
I22122
sg18
g5
sg19
I5600000
sg20
I26093672
sg21
I88
sg22
I30
sg23
I6843672
sg24
I1111258
sg25
I8682716
sg26
F0.5604339348249979
ssS'BLAKE JR. NORMAN P'
p288
(dp289
g3
g5
sg4
g5
sg6
F0.005590939094171697
sg7
I00
sg8
I16
sg9
F0.9675309740422431
sg10
g5
sg12
g5
sg13
g5
sg14
g5
sg15
g5
sg16
g5
sg17
g5
sg18
I113784
sg19
g5
sg20
g5
sg21
g5
sg22
g5
sg23
g5
sg24
g5
sg25
I1279
sg26
F0.0
ssS'SHERRICK JEFFREY B'
p290
(dp291
g3
I613
sg4
g5
sg6
F0.0
sg7
I00
sg8
I11
sg9
F1.0
sg10
S'jeffrey.sherrick@enron.com'
p292
sg12
g5
sg13
g5
sg14
I583
sg15
g5
sg16
I25
sg17
g5
sg18
g5
sg19
g5
sg20
I1832468
sg21
I39
sg22
I18
sg23
I405999
sg24
g5
sg25
g5
sg26
F0.04152943556238337
ssS'PRENTICE JAMES'
p293
(dp294
g3
g5
sg4
I564348
sg6
F0.0
sg7
I00
sg8
I14
sg9
F1.0
sg10
S'james.prentice@enron.com'
p295
sg12
g5
sg13
g5
sg14
g5
sg15
g5
sg16
g5
sg17
g5
sg18
g5
sg19
g5
sg20
I1095040
sg21
g5
sg22
g5
sg23
I208809
sg24
g5
sg25
I564348
sg26
F0.025801242934747674
ssS'GRAY RODNEY'
p296
(dp297
g3
g5
sg4
I93585
sg6
F0.0
sg7
I00
sg8
I15
sg9
F1.0
sg10
g5
sg12
I365625
sg13
g5
sg14
g5
sg15
g5
sg16
g5
sg17
I680833
sg18
g5
sg19
g5
sg20
g5
sg21
g5
sg22
g5
sg23
g5
sg24
I6615
sg25
I1146658
sg26
F0.0
ssS'PICKERING MARK R'
p298
(dp299
g3
I898
sg4
g5
sg6
F0.1383659070741335
sg7
I00
sg8
I7
sg9
F1.0
sg10
S'mark.pickering@enron.com'
p300
sg12
g5
sg13
g5
sg14
I728
sg15
I400000
sg16
I67
sg17
g5
sg18
g5
sg19
I300000
sg20
I28798
sg21
I7
sg22
I0
sg23
g5
sg24
I655037
sg25
I1386690
sg26
F0.0008384091664981969
ssS'NOLES JAMES L'
p301
(dp302
g3
g5
sg4
I774401
sg6
F0.0
sg7
I00
sg8
I15
sg9
F1.0
sg10
g5
sg12
g5
sg13
I-94556
sg14
g5
sg15
g5
sg16
g5
sg17
g5
sg18
g5
sg19
g5
sg20
I368705
sg21
g5
sg22
g5
sg23
I463261
sg24
g5
sg25
I774401
sg26
F0.0
ssS'KEAN STEVEN J'
p303
(dp304
g3
I12754
sg4
g5
sg6
F0.18339067069412449
sg7
I00
sg8
I5
sg9
F1.0
sg10
S'steven.kean@enron.com'
p305
sg12
I300000
sg13
g5
sg14
I3639
sg15
g5
sg16
I6759
sg17
I1231
sg18
g5
sg19
I1000000
sg20
I6153642
sg21
I140
sg22
I387
sg23
I4131594
sg24
I404338
sg25
I1747522
sg26
F0.05886879569065025
ssS'FOWLER PEGGY'
p306
(dp307
g3
I517
sg4
g5
sg6
F0.0
sg7
I00
sg8
I11
sg9
F1.0
sg10
S'kulvinder.fowler@enron.com'
p308
sg12
g5
sg13
g5
sg14
I10
sg15
g5
sg16
I36
sg17
g5
sg18
g5
sg19
g5
sg20
I1884748
sg21
I0
sg22
I0
sg23
I560170
sg24
g5
sg25
g5
sg26
F0.03856303691026629
ssS'WASAFF GEORGE'
p309
(dp310
g3
I400
sg4
I831299
sg6
F0.0
sg7
I00
sg8
I4
sg9
F0.8335443070483673
sg10
S'george.wasaff@enron.com'
p311
sg12
I200000
sg13
g5
sg14
I337
sg15
g5
sg16
I30
sg17
I1425
sg18
g5
sg19
I325000
sg20
I2056427
sg21
I22
sg22
I7
sg23
I388167
sg24
I259996
sg25
I1034395
sg26
F0.0485688060317481
ssS'WHITE JR THOMAS E'
p312
(dp313
g3
g5
sg4
g5
sg6
F0.3556213198812745
sg7
I00
sg8
I11
sg9
F1.0
sg10
S'thomas.white@enron.com'
p314
sg12
g5
sg13
g5
sg14
g5
sg15
g5
sg16
g5
sg17
I1085463
sg18
g5
sg19
I450000
sg20
I15144123
sg21
g5
sg22
g5
sg23
I13847074
sg24
I317543
sg25
I1934359
sg26
F0.0377615727132898
ssS'CHRISTODOULOU DIOMEDES'
p315
(dp316
g3
g5
sg4
g5
sg6
F0.0
sg7
I00
sg8
I16
sg9
F1.0
sg10
S'diomedes.christodoulou@enron.com'
p317
sg12
g5
sg13
g5
sg14
g5
sg15
g5
sg16
g5
sg17
g5
sg18
g5
sg19
g5
sg20
I6077885
sg21
g5
sg22
g5
sg23
I950730
sg24
g5
sg25
g5
sg26
F0.14926917668091752
ssS'ALLEN PHILLIP K'
p318
(dp319
g3
I2902
sg4
I2869717
sg6
F0.06062169144485778
sg7
I00
sg8
I2
sg9
F0.12080033420975886
sg10
S'phillip.allen@enron.com'
p320
sg12
I304805
sg13
I-126027
sg14
I1407
sg15
g5
sg16
I2195
sg17
I152
sg18
g5
sg19
I4175000
sg20
I1729541
sg21
I47
sg22
I65
sg23
I126027
sg24
I201955
sg25
I4484442
sg26
F0.05035290743226814
ssS'SHARP VICTORIA T'
p321
(dp322
g3
I3136
sg4
I187469
sg6
F0.5085481480833877
sg7
I00
sg8
I4
sg9
F1.0
sg10
S'vicki.sharp@enron.com'
p323
sg12
I422158
sg13
g5
sg14
I2477
sg15
g5
sg16
I136
sg17
I2401
sg18
g5
sg19
I600000
sg20
I494136
sg21
I24
sg22
I6
sg23
I213063
sg24
I248146
sg25
I1576511
sg26
F0.008183005057821643
ssS'JAEDICKE ROBERT'
p324
(dp325
g3
g5
sg4
g5
sg6
F0.0
sg7
I00
sg8
I13
sg9
F0.9928660826746826
sg10
g5
sg12
g5
sg13
I-44093
sg14
g5
sg15
g5
sg16
g5
sg17
g5
sg18
I108750
sg19
g5
sg20
I431750
sg21
g5
sg22
g5
sg23
I44093
sg24
g5
sg25
I83750
sg26
F0.012569732538217809
ssS'WINOKUR JR. HERBERT S'
p326
(dp327
g3
g5
sg4
g5
sg6
F0.0061766981548589586
sg7
I00
sg8
I16
sg9
F0.9928660826746826
sg10
g5
sg12
g5
sg13
g5
sg14
g5
sg15
g5
sg16
g5
sg17
g5
sg18
I108579
sg19
g5
sg20
g5
sg21
g5
sg22
g5
sg23
g5
sg24
g5
sg25
I84992
sg26
F0.0
ssS'BROWN MICHAEL'
p328
(dp329
g3
I1486
sg4
g5
sg6
F0.21545442226234138
sg7
I00
sg8
I12
sg9
F1.0
sg10
S'michael.brown@enron.com'
p330
sg12
g5
sg13
g5
sg14
I761
sg15
g5
sg16
I41
sg17
g5
sg18
g5
sg19
g5
sg20
g5
sg21
I13
sg22
I1
sg23
g5
sg24
g5
sg25
I49288
sg26
F0.0
ssS'BADUM JAMES P'
p331
(dp332
g3
g5
sg4
I178980
sg6
F0.01523847825041637
sg7
I00
sg8
I15
sg9
F1.0
sg10
g5
sg12
g5
sg13
g5
sg14
g5
sg15
g5
sg16
g5
sg17
g5
sg18
g5
sg19
g5
sg20
I257817
sg21
g5
sg22
g5
sg23
g5
sg24
g5
sg25
I182466
sg26
F0.007505942637650726
ssS'HUGHES JAMES A'
p333
(dp334
g3
I719
sg4
g5
sg6
F0.0
sg7
I00
sg8
I11
sg9
F1.0
sg10
S'james.hughes@enron.com'
p335
sg12
g5
sg13
g5
sg14
I589
sg15
g5
sg16
I34
sg17
g5
sg18
g5
sg19
g5
sg20
I1118394
sg21
I35
sg22
I5
sg23
I363428
sg24
g5
sg25
g5
sg26
F0.02197966576826438
ssS'REYNOLDS LAWRENCE'
p336
(dp337
g3
g5
sg4
I51365
sg6
F0.03675856672626255
sg7
I00
sg8
I8
sg9
F0.9429286613974602
sg10
g5
sg12
I156250
sg13
I-140264
sg14
g5
sg15
g5
sg16
g5
sg17
I202052
sg18
g5
sg19
I100000
sg20
I4221891
sg21
g5
sg22
g5
sg23
I201483
sg24
I76399
sg25
I394475
sg26
F0.12113152106369837
ssS'DIMICHELE RICHARD G'
p338
(dp339
g3
g5
sg4
g5
sg6
F0.15654629463680753
sg7
I00
sg8
I10
sg9
F1.0
sg10
S'richard.dimichele@enron.com'
p340
sg12
I694862
sg13
g5
sg14
g5
sg15
g5
sg16
g5
sg17
I374689
sg18
g5
sg19
I1000000
sg20
I8317782
sg21
g5
sg22
g5
sg23
I126027
sg24
I262788
sg25
I2368151
sg26
F0.23849025910505717
ssS'BHATNAGAR SANJAY'
p341
(dp342
g3
I523
sg4
g5
sg6
F0.0
sg7
I00
sg8
I8
sg9
F1.0
sg10
S'sanjay.bhatnagar@enron.com'
p343
sg12
g5
sg13
I15456290
sg14
I463
sg15
g5
sg16
I29
sg17
I137864
sg18
I137864
sg19
g5
sS'total_stock_value'
p344
S'NaN'
p345
sg21
I0
sg22
I1
sg23
I-2604490
sg24
g5
sg25
I15456290
sg26
F0.07582569241103163
ssS'CARTER REBECCA C'
p346
(dp347
g3
I312
sg4
g5
sg6
F0.0
sg7
I00
sg8
I6
sg9
F0.9544022833101148
sg10
S'rebecca.carter@enron.com'
p348
sg12
I75000
sg13
I-307301
sg14
I196
sg15
g5
sg16
I15
sg17
I540
sg18
g5
sg19
I300000
sg20
g5
sg21
I29
sg22
I7
sg23
I307301
sg24
I261809
sg25
I477557
sg26
F0.0
ssS'BUCHANAN HAROLD G'
p349
(dp350
g3
I1088
sg4
g5
sg6
F0.00262280176427132
sg7
I00
sg8
I5
sg9
F1.0
sg10
S'john.buchanan@enron.com'
p351
sg12
I304805
sg13
g5
sg14
I23
sg15
g5
sg16
I125
sg17
I1215
sg18
g5
sg19
I500000
sg20
I1014505
sg21
I0
sg22
I0
sg23
I189041
sg24
I248017
sg25
I1054637
sg26
F0.024032105848123743
ssS'YEAP SOON'
p352
(dp353
g3
g5
sg4
g5
sg6
F0.24084751467676155
sg7
I00
sg8
I16
sg9
F1.0
sg10
g5
sg12
g5
sg13
g5
sg14
g5
sg15
g5
sg16
g5
sg17
g5
sg18
g5
sg19
g5
sg20
I192758
sg21
g5
sg22
g5
sg23
g5
sg24
g5
sg25
I55097
sg26
F0.005611850618649192
ssS'MURRAY JULIA H'
p354
(dp355
g3
I2192
sg4
g5
sg6
F0.251701542644571
sg7
I00
sg8
I5
sg9
F1.0
sg10
S'julia.murray@enron.com'
p356
sg12
I125000
sg13
g5
sg14
I395
sg15
g5
sg16
I45
sg17
I330
sg18
g5
sg19
I400000
sg20
I597461
sg21
I11
sg22
I2
sg23
I196983
sg24
I229284
sg25
I812194
sg26
F0.011659296693550416
ssS'GARLAND C KEVIN'
p357
(dp358
g3
I209
sg4
g5
sg6
F0.21159453233258874
sg7
I00
sg8
I5
sg9
F1.0
sg10
S'kevin.garland@enron.com'
p359
sg12
I375304
sg13
g5
sg14
I178
sg15
g5
sg16
I44
sg17
I60814
sg18
g5
sg19
I850000
sg20
I896153
sg21
I10
sg22
I27
sg23
I259907
sg24
I231946
sg25
I1566469
sg26
F0.01852331684658003
ssS'DODSON KEITH'
p360
(dp361
g3
I176
sg4
g5
sg6
F0.12311431481489576
sg7
I00
sg8
I9
sg9
F1.0
sg10
S'keith.dodson@enron.com'
p362
sg12
g5
sg13
g5
sg14
I114
sg15
g5
sg16
I14
sg17
I774
sg18
g5
sg19
I70000
sg20
g5
sg21
I10
sg22
I3
sg23
g5
sg24
I221003
sg25
I319941
sg26
F0.0
ssS'YEAGER F SCOTT'
p363
(dp364
g3
g5
sg4
g5
sg6
F0.23582047796190816
sg7
I01
sg8
I12
sg9
F1.0
sg10
S'scott.yeager@enron.com'
p365
sg12
g5
sg13
g5
sg14
g5
sg15
g5
sg16
g5
sg17
I147950
sg18
g5
sg19
g5
sg20
I11884758
sg21
g5
sg22
g5
sg23
I3576206
sg24
I158403
sg25
I360300
sg26
F0.24189062286016133
ssS'HIRKO JOSEPH'
p366
(dp367
g3
g5
sg4
I10259
sg6
F0.34086805995724834
sg7
I01
sg8
I13
sg9
F1.0
sg10
S'joe.hirko@enron.com'
p368
sg12
g5
sg13
g5
sg14
g5
sg15
g5
sg16
g5
sg17
I2856
sg18
g5
sg19
g5
sg20
I30766064
sg21
g5
sg22
g5
sg23
g5
sg24
g5
sg25
I91093
sg26
F0.8957063016414397
ssS'DIETRICH JANET R'
p369
(dp370
g3
I2572
sg4
g5
sg6
F0.015190393551404729
sg7
I00
sg8
I5
sg9
F1.0
sg10
S'janet.dietrich@enron.com'
p371
sg12
I556416
sg13
g5
sg14
I1902
sg15
g5
sg16
I63
sg17
I473
sg18
g5
sg19
I600000
sg20
I1865087
sg21
I305
sg22
I14
sg23
I315068
sg24
I250100
sg25
I1410464
sg26
F0.04512640245316927
ssS'DERRICK JR. JAMES V'
p372
(dp373
g3
I2181
sg4
g5
sg6
F0.22348019566101163
sg7
I00
sg8
I3
sg9
F0.6336020061716946
sg10
S'james.derrick@enron.com'
p374
sg12
I484000
sg13
I-1787380
sg14
I1401
sg15
g5
sg16
I909
sg17
I7482
sg18
g5
sg19
I800000
sg20
I8831913
sg21
I64
sg22
I20
sg23
I1787380
sg24
I492375
sg25
I550981
sg26
F0.2571274677725741
ssS'FREVERT MARK A'
p375
(dp376
g3
I3275
sg4
I6426990
sg6
F0.3802494284477822
sg7
I00
sg8
I2
sg9
F0.039200875702619514
sg10
S'mark.frevert@enron.com'
p377
sg12
I1617011
sg13
g5
sg14
I2979
sg15
I2000000
sg16
I21
sg17
I7427621
sg18
g5
sg19
I2000000
sg20
I14622185
sg21
I242
sg22
I6
sg23
I4188667
sg24
I1060932
sg25
I17252530
sg26
F0.30375571671726975
ssS'PAI LOU L'
p378
(dp379
g3
g5
sg4
g5
sg6
F0.14008821356600498
sg7
I00
sg8
I11
sg9
F1.0
sg10
S'lou.pai@enron.com'
p380
sg12
g5
sg13
g5
sg14
g5
sg15
g5
sg16
g5
sg17
I1829457
sg18
g5
sg19
I1000000
sg20
I23817930
sg21
g5
sg22
g5
sg23
I8453763
sg24
I261879
sg25
I3123383
sg26
F0.4473039255645913
ssS'BAY FRANKLIN R'
p381
(dp382
g3
g5
sg4
I260455
sg6
F0.5645231090692113
sg7
I00
sg8
I9
sg9
F0.9424603910642264
sg10
S'frank.bay@enron.com'
p383
sg12
g5
sg13
I-82782
sg14
g5
sg15
g5
sg16
g5
sg17
I69
sg18
g5
sg19
I400000
sg20
I63014
sg21
g5
sg22
g5
sg23
I145796
sg24
I239671
sg25
I827696
sg26
F0.0
ssS'HAYSLETT RODERICK J'
p384
(dp385
g3
I2649
sg4
g5
sg6
F0.0
sg7
I00
sg8
I12
sg9
F1.0
sg10
S'rod.hayslett@enron.com'
p386
sg12
g5
sg13
g5
sg14
I571
sg15
g5
sg16
I1061
sg17
g5
sg18
g5
sg19
g5
sg20
I346663
sg21
I35
sg22
I38
sg23
I346663
sg24
g5
sg25
g5
sg26
F0.0
ssS'FUGH JOHN L'
p387
(dp388
g3
g5
sg4
I50591
sg6
F0.0
sg7
I00
sg8
I16
sg9
F1.0
sg10
g5
sg12
g5
sg13
g5
sg14
g5
sg15
g5
sg16
g5
sg17
g5
sg18
g5
sg19
g5
sg20
I176378
sg21
g5
sg22
g5
sg23
g5
sg24
g5
sg25
I50591
sg26
F0.0051349722886526485
ssS'FALLON JAMES B'
p389
(dp390
g3
I1755
sg4
g5
sg6
F0.4193160607266035
sg7
I00
sg8
I5
sg9
F1.0
sg10
S'jim.fallon@enron.com'
p391
sg12
I374347
sg13
g5
sg14
I1604
sg15
g5
sg16
I75
sg17
I401481
sg18
g5
sg19
I2500000
sg20
I2332399
sg21
I42
sg22
I37
sg23
I1392142
sg24
I304588
sg25
I3676340
sg26
F0.027374126247103794
ssS'KOENIG MARK E'
p392
(dp393
g3
I2374
sg4
g5
sg6
F0.5552340194874171
sg7
I01
sg8
I5
sg9
F1.0
sg10
S'mark.koenig@enron.com'
p394
sg12
I300000
sg13
g5
sg14
I2271
sg15
g5
sg16
I61
sg17
I150458
sg18
g5
sg19
I700000
sg20
I1920055
sg21
I53
sg22
I15
sg23
I1248318
sg24
I309946
sg25
I1587421
sg26
F0.01955658234169037
ssS'SAVAGE FRANK'
p395
(dp396
g3
g5
sg4
g5
sg6
F0.0
sg7
I00
sg8
I17
sg9
F0.9653907988446478
sg10
g5
sg12
g5
sg13
g5
sg14
g5
sg15
g5
sg16
g5
sg17
g5
sg18
I125034
sg19
g5
sg20
g5
sg21
g5
sg22
g5
sg23
g5
sg24
g5
sg25
I3750
sg26
F0.0
ssS'IZZO LAWRENCE L'
p397
(dp398
g3
I496
sg4
g5
sg6
F0.122803949939457
sg7
I00
sg8
I6
sg9
F1.0
sg10
S'larry.izzo@enron.com'
p399
sg12
I312500
sg13
g5
sg14
I437
sg15
g5
sg16
I19
sg17
I1553729
sg18
g5
sg19
g5
sg20
I5819980
sg21
I28
sg22
I5
sg23
I3654808
sg24
I85274
sg25
I1979596
sg26
F0.0630356292744369
ssS'TILNEY ELIZABETH A'
p400
(dp401
g3
I460
sg4
g5
sg6
F0.0
sg7
I00
sg8
I5
sg9
F0.8359199015176981
sg10
S'elizabeth.tilney@enron.com'
p402
sg12
I275000
sg13
g5
sg14
I379
sg15
g5
sg16
I19
sg17
I152055
sg18
g5
sg19
I300000
sg20
I1168042
sg21
I10
sg22
I11
sg23
I576792
sg24
I247338
sg25
I399393
sg26
F0.017213327998196363
ssS'MARTIN AMANDA K'
p403
(dp404
g3
I1522
sg4
I85430
sg6
F0.03589304214405301
sg7
I00
sg8
I6
sg9
F1.0
sg10
S'a..martin@enron.com'
p405
sg12
I5145434
sg13
g5
sg14
I477
sg15
g5
sg16
I230
sg17
I2818454
sg18
g5
sg19
g5
sg20
I2070306
sg21
I8
sg22
I0
sg23
g5
sg24
I349487
sg25
I8407016
sg26
F0.06027375261671699
ssS'BUY RICHARD B'
p406
(dp407
g3
I3523
sg4
I649584
sg6
F0.0
sg7
I00
sg8
I4
sg9
F0.80171647757981
sg10
S'rick.buy@enron.com'
p408
sg12
I769862
sg13
g5
sg14
I2333
sg15
g5
sg16
I1053
sg17
I400572
sg18
g5
sg19
I900000
sg20
I3444470
sg21
I156
sg22
I71
sg23
I901657
sg24
I330546
sg25
I2355702
sg26
F0.07403006208385234
ssS'GRAMM WENDY L'
p409
(dp410
g3
g5
sg4
g5
sg6
F0.0
sg7
I00
sg8
I18
sg9
F1.0
sg10
g5
sg12
g5
sg13
g5
sg14
g5
sg15
g5
sg16
g5
sg17
g5
sg18
I119292
sg19
g5
sg20
g5
sg21
g5
sg22
g5
sg23
g5
sg24
g5
sg25
I119292
sg26
F0.0
ssS'CAUSEY RICHARD A'
p411
(dp412
g3
I1892
sg4
g5
sg6
F0.13408636886209746
sg7
I01
sg8
I5
sg9
F0.9329411771420157
sg10
S'richard.causey@enron.com'
p413
sg12
I350000
sg13
g5
sg14
I1585
sg15
g5
sg16
I49
sg17
I307895
sg18
g5
sg19
I1000000
sg20
I2502063
sg21
I58
sg22
I12
sg23
I2502063
sg24
I415189
sg25
I1868758
sg26
F0.0
ssS'TAYLOR MITCHELL S'
p414
(dp415
g3
I533
sg4
I227449
sg6
F0.0
sg7
I00
sg8
I7
sg9
F1.0
sg10
S'mitchell.taylor@enron.com'
p416
sg12
g5
sg13
g5
sg14
I300
sg15
g5
sg16
I29
sg17
g5
sg18
g5
sg19
I600000
sg20
I3745048
sg21
I0
sg22
I0
sg23
I563798
sg24
I265214
sg25
I1092663
sg26
F0.09261716650192335
ssS'DONAHUE JR JEFFREY M'
p417
(dp418
g3
I865
sg4
g5
sg6
F0.4208198004047857
sg7
I00
sg8
I5
sg9
F0.9143929920961903
sg10
S'jeff.donahue@enron.com'
p419
sg12
g5
sg13
g5
sg14
I772
sg15
g5
sg16
I22
sg17
I891
sg18
g5
sg19
I800000
sg20
I1080988
sg21
I188
sg22
I11
sg23
I315068
sg24
I278601
sg25
I875760
sg26
F0.022298574512268174
ssS'GLISAN JR BEN F'
p420
(dp421
g3
I873
sg4
g5
sg6
F0.5506922010989539
sg7
I01
sg8
I5
sg9
F1.0
sg10
S'ben.glisan@enron.com'
p422
sg12
I71023
sg13
g5
sg14
I874
sg15
g5
sg16
I16
sg17
I200308
sg18
g5
sg19
I600000
sg20
I778546
sg21
I52
sg22
I6
sg23
I393818
sg24
I274975
sg25
I1272284
sg26
F0.011200759837784508
ss.