(dp0
S'METTS MARK'
p1
(dp2
S'to_messages'
p3
I807
sS'deferral_payments'
p4
S'NaN'
p5
sS'expenses'
p6
I94299
sS'poi'
p7
I00
sS'number_of_missing_fields'
p8
F0.2777777777777778
sS'deferred_income'
p9
g5
sS'email_address'
p10
S'mark.metts@enron.com'
p11
sS'long_term_incentive'
p12
g5
sS'restricted_stock_deferred'
p13
g5
sS'shared_receipt_with_poi'
p14
F0.17908163265306123
sS'loan_advances'
p15
g5
sS'from_messages'
p16
I29
sS'other'
p17
I1740
sS'director_fees'
p18
g5
sS'bonus'
p19
I600000
sS'total_stock_value'
p20
I585062
sS'from_poi_to_this_person'
p21
F0.15139442231075698
sS'from_this_person_to_poi'
p22
F0.002583979328165375
sS'restricted_stock'
p23
I585062
sS'salary'
p24
I365788
sS'total_payments'
p25
I1061827
sS'exercised_stock_options'
p26
g5
ssS'BAXTER JOHN C'
p27
(dp28
g3
g5
sg4
I1295738
sg6
I11200
sg7
I00
sg8
F0.3888888888888889
sg9
I-1386055
sg10
g5
sg12
I1586055
sg13
g5
sg14
F0.0
sg15
g5
sg16
g5
sg17
I2660303
sg18
g5
sg19
I1200000
sg20
I10623258
sg21
F0.0
sg22
F0.0
sg23
I3942714
sg24
I267102
sg25
I5634343
sg26
I6680544
ssS'ELLIOTT STEVEN'
p29
(dp30
g3
g5
sg4
g5
sg6
I78552
sg7
I00
sg8
F0.4444444444444444
sg9
I-400729
sg10
S'steven.elliott@enron.com'
p31
sg12
g5
sg13
g5
sg14
F0.0
sg15
g5
sg16
g5
sg17
I12961
sg18
g5
sg19
I350000
sg20
I6678735
sg21
F0.0
sg22
F0.0
sg23
I1788391
sg24
I170941
sg25
I211725
sg26
I4890344
ssS'HANNON KEVIN P'
p32
(dp33
g3
I1045
sg4
g5
sg6
I34039
sg7
I01
sg8
F0.1111111111111111
sg9
I-3117011
sg10
S'kevin.hannon@enron.com'
p34
sg12
I1617011
sg13
g5
sg14
F0.26403061224489793
sg15
g5
sg16
I32
sg17
I11350
sg18
g5
sg19
I1500000
sg20
I6391065
sg21
F0.12749003984063745
sg22
F0.05426356589147287
sg23
I853064
sg24
I243293
sg25
I288682
sg26
I5538001
ssS'MORDAUNT KRISTINA M'
p35
(dp36
g3
g5
sg4
g5
sg6
I35018
sg7
I00
sg8
F0.5555555555555556
sg9
g5
sg10
S'kristina.mordaunt@enron.com'
p37
sg12
g5
sg13
g5
sg14
F0.0
sg15
g5
sg16
g5
sg17
I1411
sg18
g5
sg19
I325000
sg20
I208510
sg21
F0.0
sg22
F0.0
sg23
I208510
sg24
I267093
sg25
I628522
sg26
g5
ssS'MCMAHON JEFFREY'
p38
(dp39
g3
I2355
sg4
g5
sg6
I137108
sg7
I00
sg8
F0.16666666666666666
sg9
g5
sg10
S'jeffrey.mcmahon@enron.com'
p40
sg12
I694862
sg13
g5
sg14
F0.5683673469387756
sg15
g5
sg16
I48
sg17
I297353
sg18
g5
sg19
I2600000
sg20
I1662855
sg21
F0.23107569721115537
sg22
F0.06718346253229975
sg23
I558801
sg24
I370448
sg25
I4099771
sg26
I1104054
ssS'HORTON STANLEY C'
p41
(dp42
g3
I2350
sg4
I3131860
sg6
g5
sg7
I00
sg8
F0.3888888888888889
sg9
g5
sg10
S'stanley.horton@enron.com'
p43
sg12
g5
sg13
g5
sg14
F0.2739795918367347
sg15
g5
sg16
I1073
sg17
g5
sg18
g5
sg19
g5
sg20
I7256648
sg21
F0.1752988047808765
sg22
F0.03875968992248062
sg23
I2046079
sg24
g5
sg25
I3131860
sg26
I5210569
ssS'PIPER GREGORY F'
p44
(dp45
g3
I1238
sg4
I1130036
sg6
I43057
sg7
I00
sg8
F0.05555555555555555
sg9
I-33333
sg10
S'greg.piper@enron.com'
p46
sg12
g5
sg13
I-409554
sg14
F0.18928571428571428
sg15
g5
sg16
I222
sg17
I778
sg18
g5
sg19
I400000
sg20
I880290
sg21
F0.24302788844621515
sg22
F0.12403100775193798
sg23
I409554
sg24
I197091
sg25
I1737629
sg26
I880290
ssS'HUMPHREY GENE E'
p47
(dp48
g3
I128
sg4
I2964506
sg6
I4994
sg7
I00
sg8
F0.3333333333333333
sg9
g5
sg10
S'gene.humphrey@enron.com'
p49
sg12
g5
sg13
g5
sg14
F0.030357142857142857
sg15
g5
sg16
I17
sg17
g5
sg18
g5
sg19
g5
sg20
I2282768
sg21
F0.0398406374501992
sg22
F0.04392764857881137
sg23
g5
sg24
I130724
sg25
I3100224
sg26
I2282768
ssS'BLACHMAN JEREMY M'
p50
(dp51
g3
I2475
sg4
g5
sg6
I84208
sg7
I00
sg8
F0.16666666666666666
sg9
g5
sg10
S'jeremy.blachman@enron.com'
p52
sg12
I831809
sg13
g5
sg14
F0.5933673469387755
sg15
g5
sg16
I14
sg17
I272
sg18
g5
sg19
I850000
sg20
I954354
sg21
F0.099601593625498
sg22
F0.00516795865633075
sg23
I189041
sg24
I248546
sg25
I2014835
sg26
I765313
ssS'SUNDE MARTIN'
p53
(dp54
g3
I2647
sg4
g5
sg6
g5
sg7
I00
sg8
F0.2777777777777778
sg9
g5
sg10
S'marty.sunde@enron.com'
p55
sg12
I476451
sg13
g5
sg14
F0.6543367346938775
sg15
g5
sg16
I38
sg17
I111122
sg18
g5
sg19
I700000
sg20
I698920
sg21
F0.14741035856573706
sg22
F0.03359173126614987
sg23
I698920
sg24
I257486
sg25
I1545059
sg26
g5
ssS'LOWRY CHARLES P'
p56
(dp57
g3
g5
sg4
g5
sg6
g5
sg7
I00
sg8
F0.7777777777777778
sg9
g5
sg10
g5
sg12
g5
sg13
I-153686
sg14
F0.0
sg15
g5
sg16
g5
sg17
g5
sg18
g5
sg19
g5
sg20
I372205
sg21
F0.0
sg22
F0.0
sg23
I153686
sg24
g5
sg25
g5
sg26
I372205
ssS'COLWELL WESLEY'
p58
(dp59
g3
I1758
sg4
I27610
sg6
I16514
sg7
I01
sg8
F0.16666666666666666
sg9
I-144062
sg10
S'wes.colwell@enron.com'
p60
sg12
g5
sg13
g5
sg14
F0.28877551020408165
sg15
g5
sg16
I40
sg17
I101740
sg18
g5
sg19
I1200000
sg20
I698242
sg21
F0.9561752988047809
sg22
F0.028423772609819122
sg23
I698242
sg24
I288542
sg25
I1490344
sg26
g5
ssS'JACKSON CHARLENE R'
p61
(dp62
g3
I258
sg4
g5
sg6
I10181
sg7
I00
sg8
F0.2222222222222222
sg9
g5
sg10
S'charlene.jackson@enron.com'
p63
sg12
g5
sg13
g5
sg14
F0.029846938775510205
sg15
g5
sg16
I56
sg17
I2435
sg18
g5
sg19
I250000
sg20
I725735
sg21
F0.099601593625498
sg22
F0.04909560723514212
sg23
I540672
sg24
I288558
sg25
I551174
sg26
I185063
ssS'WESTFAHL RICHARD K'
p64
(dp65
g3
g5
sg4
g5
sg6
I51870
sg7
I00
sg8
F0.5
sg9
I-10800
sg10
S'dick.westfahl@enron.com'
p66
sg12
I256191
sg13
g5
sg14
F0.0
sg15
g5
sg16
g5
sg17
I401130
sg18
g5
sg19
g5
sg20
I384930
sg21
F0.0
sg22
F0.0
sg23
I384930
sg24
I63744
sg25
I762135
sg26
g5
ssS'WALTERS GARETH W'
p67
(dp68
g3
g5
sg4
I53625
sg6
I33785
sg7
I00
sg8
F0.7222222222222222
sg9
g5
sg10
g5
sg12
g5
sg13
g5
sg14
F0.0
sg15
g5
sg16
g5
sg17
g5
sg18
g5
sg19
g5
sg20
I1030329
sg21
F0.0
sg22
F0.0
sg23
g5
sg24
g5
sg25
I87410
sg26
I1030329
ssS'KITCHEN LOUISE'
p69
(dp70
g3
I8305
sg4
g5
sg6
I5774
sg7
I00
sg8
F0.2222222222222222
sg9
g5
sg10
S'louise.kitchen@enron.com'
p71
sg12
g5
sg13
g5
sg14
F0.9359693877551021
sg15
g5
sg16
I1728
sg17
I93925
sg18
g5
sg19
I3100000
sg20
I547143
sg21
F1.0
sg22
F0.5012919896640827
sg23
I466101
sg24
I271442
sg25
I3471141
sg26
I81042
ssS'CHAN RONNIE'
p72
(dp73
g3
g5
sg4
g5
sg6
g5
sg7
I00
sg8
F0.7777777777777778
sg9
I-98784
sg10
g5
sg12
g5
sg13
I-32460
sg14
F0.0
sg15
g5
sg16
g5
sg17
g5
sg18
I98784
sg19
g5
sg20
g5
sg21
F0.0
sg22
F0.0
sg23
I32460
sg24
g5
sg25
g5
sg26
g5
ssS'BELFER ROBERT'
p74
(dp75
g3
g5
sg4
I-102500
sg6
g5
sg7
I00
sg8
F0.6666666666666666
sg9
g5
sg10
g5
sg12
g5
sg13
I44093
sg14
F0.0
sg15
g5
sg16
g5
sg17
g5
sg18
I3285
sg19
g5
sg20
I-44093
sg21
F0.0
sg22
F0.0
sg23
g5
sg24
g5
sg25
I102500
sg26
I3285
ssS'SHANKMAN JEFFREY A'
p76
(dp77
g3
I3221
sg4
g5
sg6
I178979
sg7
I00
sg8
F0.16666666666666666
sg9
g5
sg10
S'jeffrey.shankman@enron.com'
p78
sg12
I554422
sg13
g5
sg14
F0.4413265306122449
sg15
g5
sg16
I2681
sg17
I1191
sg18
g5
sg19
I2000000
sg20
I2072035
sg21
F0.3745019920318725
sg22
F0.2144702842377261
sg23
I630137
sg24
I304110
sg25
I3038702
sg26
I1441898
ssS'WODRASKA JOHN'
p79
(dp80
g3
g5
sg4
g5
sg6
g5
sg7
I00
sg8
F0.8333333333333334
sg9
g5
sg10
S'john.wodraska@enron.com'
p81
sg12
g5
sg13
g5
sg14
F0.0
sg15
g5
sg16
g5
sg17
I189583
sg18
g5
sg19
g5
sg20
g5
sg21
F0.0
sg22
F0.0
sg23
g5
sg24
g5
sg25
I189583
sg26
g5
ssS'URQUHART JOHN A'
p82
(dp83
g3
g5
sg4
g5
sg6
I228656
sg7
I00
sg8
F0.7777777777777778
sg9
I-36666
sg10
g5
sg12
g5
sg13
g5
sg14
F0.0
sg15
g5
sg16
g5
sg17
g5
sg18
I36666
sg19
g5
sg20
g5
sg21
F0.0
sg22
F0.0
sg23
g5
sg24
g5
sg25
I228656
sg26
g5
ssS'BIBI PHILIPPE A'
p84
(dp85
g3
I1607
sg4
g5
sg6
I38559
sg7
I00
sg8
F0.16666666666666666
sg9
g5
sg10
S'philippe.bibi@enron.com'
p86
sg12
I369721
sg13
g5
sg14
F0.3408163265306122
sg15
g5
sg16
I40
sg17
I425688
sg18
g5
sg19
I1000000
sg20
I1843816
sg21
F0.09163346613545817
sg22
F0.020671834625323
sg23
I378082
sg24
I213625
sg25
I2047593
sg26
I1465734
ssS'RIEKER PAULA H'
p87
(dp88
g3
I1328
sg4
I214678
sg6
I33271
sg7
I01
sg8
F0.1111111111111111
sg9
I-100000
sg10
S'paula.rieker@enron.com'
p89
sg12
g5
sg13
g5
sg14
F0.3209183673469388
sg15
g5
sg16
I82
sg17
I1950
sg18
g5
sg19
I700000
sg20
I1918887
sg21
F0.1394422310756972
sg22
F0.12403100775193798
sg23
I283649
sg24
I249201
sg25
I1099100
sg26
I1635238
ssS'WHALEY DAVID A'
p90
(dp91
g3
g5
sg4
g5
sg6
g5
sg7
I00
sg8
F0.8888888888888888
sg9
g5
sg10
g5
sg12
g5
sg13
g5
sg14
F0.0
sg15
g5
sg16
g5
sg17
g5
sg18
g5
sg19
g5
sg20
I98718
sg21
F0.0
sg22
F0.0
sg23
g5
sg24
g5
sg25
g5
sg26
I98718
ssS'BECK SALLY W'
p92
(dp93
g3
I7315
sg4
g5
sg6
I37172
sg7
I00
sg8
F0.2777777777777778
sg9
g5
sg10
S'sally.beck@enron.com'
p94
sg12
g5
sg13
g5
sg14
F0.6732142857142858
sg15
g5
sg16
I4343
sg17
I566
sg18
g5
sg19
I700000
sg20
I126027
sg21
F0.5737051792828686
sg22
F0.9974160206718347
sg23
I126027
sg24
I231330
sg25
I969068
sg26
g5
ssS'HAUG DAVID L'
p95
(dp96
g3
I573
sg4
g5
sg6
I475
sg7
I00
sg8
F0.4444444444444444
sg9
g5
sg10
S'david.haug@enron.com'
p97
sg12
g5
sg13
g5
sg14
F0.1201530612244898
sg15
g5
sg16
I19
sg17
g5
sg18
g5
sg19
g5
sg20
I2217299
sg21
F0.01593625498007968
sg22
F0.01808785529715762
sg23
I2217299
sg24
g5
sg25
I475
sg26
g5
ssS'ECHOLS JOHN B'
p98
(dp99
g3
g5
sg4
g5
sg6
I21530
sg7
I00
sg8
F0.4444444444444444
sg9
g5
sg10
S'john.echols@enron.com'
p100
sg12
I2234774
sg13
g5
sg14
F0.0
sg15
g5
sg16
g5
sg17
I53775
sg18
g5
sg19
I200000
sg20
I1008941
sg21
F0.0
sg22
F0.0
sg23
I407503
sg24
I182245
sg25
I2692324
sg26
I601438
ssS'MENDELSOHN JOHN'
p101
(dp102
g3
g5
sg4
g5
sg6
I148
sg7
I00
sg8
F0.7777777777777778
sg9
I-103750
sg10
g5
sg12
g5
sg13
g5
sg14
F0.0
sg15
g5
sg16
g5
sg17
g5
sg18
I103750
sg19
g5
sg20
g5
sg21
F0.0
sg22
F0.0
sg23
g5
sg24
g5
sg25
I148
sg26
g5
ssS'HICKERSON GARY J'
p103
(dp104
g3
I1320
sg4
g5
sg6
I98849
sg7
I00
sg8
F0.2222222222222222
sg9
g5
sg10
S'gary.hickerson@enron.com'
p105
sg12
I69223
sg13
g5
sg14
F0.22959183673469388
sg15
g5
sg16
I27
sg17
I1936
sg18
g5
sg19
I1700000
sg20
I441096
sg21
F0.1593625498007968
sg22
F0.002583979328165375
sg23
I441096
sg24
I211788
sg25
I2081796
sg26
g5
ssS'CLINE KENNETH W'
p106
(dp107
g3
g5
sg4
g5
sg6
g5
sg7
I00
sg8
F0.8333333333333334
sg9
g5
sg10
g5
sg12
g5
sg13
I-472568
sg14
F0.0
sg15
g5
sg16
g5
sg17
g5
sg18
g5
sg19
g5
sg20
I189518
sg21
F0.0
sg22
F0.0
sg23
I662086
sg24
g5
sg25
g5
sg26
g5
ssS'MCCARTY DANNY J'
p108
(dp109
g3
I1433
sg4
g5
sg6
g5
sg7
I00
sg8
F0.5
sg9
g5
sg10
S'danny.mccarty@enron.com'
p110
sg12
g5
sg13
g5
sg14
F0.12959183673469388
sg15
g5
sg16
I215
sg17
g5
sg18
g5
sg19
g5
sg20
I758931
sg21
F0.099601593625498
sg22
F0.00516795865633075
sg23
I94556
sg24
g5
sg25
g5
sg26
I664375
ssS'KOPPER MICHAEL J'
p111
(dp112
g3
g5
sg4
g5
sg6
I118134
sg7
I01
sg8
F0.5
sg9
g5
sg10
S'michael.kopper@enron.com'
p113
sg12
I602671
sg13
g5
sg14
F0.0
sg15
g5
sg16
g5
sg17
I907502
sg18
g5
sg19
I800000
sg20
I985032
sg21
F0.0
sg22
F0.0
sg23
I985032
sg24
I224305
sg25
I2652612
sg26
g5
ssS'LEFF DANIEL P'
p114
(dp115
g3
I2822
sg4
g5
sg6
g5
sg7
I00
sg8
F0.2777777777777778
sg9
g5
sg10
S'dan.leff@enron.com'
p116
sg12
I1387399
sg13
g5
sg14
F0.6816326530612244
sg15
g5
sg16
I63
sg17
I3083
sg18
g5
sg19
I1000000
sg20
I360528
sg21
F0.26693227091633465
sg22
F0.03617571059431524
sg23
I360528
sg24
I273746
sg25
I2664228
sg26
g5
ssS'BERBERIAN DAVID'
p117
(dp118
g3
g5
sg4
g5
sg6
I11892
sg7
I00
sg8
F0.6111111111111112
sg9
g5
sg10
S'david.berberian@enron.com'
p119
sg12
g5
sg13
g5
sg14
F0.0
sg15
g5
sg16
g5
sg17
g5
sg18
g5
sg19
g5
sg20
I2493616
sg21
F0.0
sg22
F0.0
sg23
I869220
sg24
I216582
sg25
I228474
sg26
I1624396
ssS'DETMERING TIMOTHY J'
p120
(dp121
g3
g5
sg4
I875307
sg6
I52255
sg7
I00
sg8
F0.2777777777777778
sg9
I-775241
sg10
S'timothy.detmering@enron.com'
p122
sg12
I415657
sg13
I-315068
sg14
F0.0
sg15
g5
sg16
g5
sg17
I1105
sg18
g5
sg19
I425000
sg20
I2027865
sg21
F0.0
sg22
F0.0
sg23
I315068
sg24
I210500
sg25
I1204583
sg26
I2027865
ssS'WAKEHAM JOHN'
p123
(dp124
g3
g5
sg4
g5
sg6
I103773
sg7
I00
sg8
F0.8333333333333334
sg9
g5
sg10
g5
sg12
g5
sg13
g5
sg14
F0.0
sg15
g5
sg16
g5
sg17
g5
sg18
I109298
sg19
g5
sg20
g5
sg21
F0.0
sg22
F0.0
sg23
g5
sg24
g5
sg25
I213071
sg26
g5
ssS'GOLD JOSEPH'
p125
(dp126
g3
g5
sg4
g5
sg6
g5
sg7
I00
sg8
F0.5
sg9
g5
sg10
S'joe.gold@enron.com'
p127
sg12
I304805
sg13
g5
sg14
F0.0
sg15
g5
sg16
g5
sg17
I819288
sg18
g5
sg19
I750000
sg20
I877611
sg21
F0.0
sg22
F0.0
sg23
I441096
sg24
I272880
sg25
I2146973
sg26
I436515
ssS'DUNCAN JOHN H'
p128
(dp129
g3
g5
sg4
g5
sg6
g5
sg7
I00
sg8
F0.7222222222222222
sg9
I-25000
sg10
g5
sg12
g5
sg13
g5
sg14
F0.0
sg15
g5
sg16
g5
sg17
g5
sg18
I102492
sg19
g5
sg20
I371750
sg21
F0.0
sg22
F0.0
sg23
g5
sg24
g5
sg25
I77492
sg26
I371750
ssS'SHERRIFF JOHN R'
p130
(dp131
g3
I3187
sg4
g5
sg6
g5
sg7
I00
sg8
F0.2222222222222222
sg9
g5
sg10
S'john.sherriff@enron.com'
p132
sg12
I554422
sg13
g5
sg14
F0.5364795918367347
sg15
g5
sg16
I92
sg17
I1852186
sg18
g5
sg19
I1500000
sg20
I3128982
sg21
F0.11155378486055777
sg22
F0.059431524547803614
sg23
I1293424
sg24
I428780
sg25
I4335388
sg26
I1835558
ssS'SHELBY REX'
p133
(dp134
g3
I225
sg4
g5
sg6
I22884
sg7
I01
sg8
F0.16666666666666666
sg9
I-4167
sg10
S'rex.shelby@enron.com'
p135
sg12
g5
sg13
g5
sg14
F0.023214285714285715
sg15
g5
sg16
I39
sg17
I1573324
sg18
g5
sg19
I200000
sg20
I2493616
sg21
F0.05179282868525897
sg22
F0.03617571059431524
sg23
I869220
sg24
I211844
sg25
I2003885
sg26
I1624396
ssS'LEMAISTRE CHARLES'
p136
(dp137
g3
g5
sg4
g5
sg6
g5
sg7
I00
sg8
F0.7222222222222222
sg9
I-25000
sg10
g5
sg12
g5
sg13
g5
sg14
F0.0
sg15
g5
sg16
g5
sg17
g5
sg18
I112492
sg19
g5
sg20
I412878
sg21
F0.0
sg22
F0.0
sg23
g5
sg24
g5
sg25
I87492
sg26
I412878
ssS'DEFFNER JOSEPH M'
p138
(dp139
g3
I714
sg4
g5
sg6
I41626
sg7
I00
sg8
F0.16666666666666666
sg9
g5
sg10
S'joseph.deffner@enron.com'
p140
sg12
I335349
sg13
g5
sg14
F0.14081632653061224
sg15
g5
sg16
I74
sg17
I25553
sg18
g5
sg19
I600000
sg20
I159211
sg21
F0.4581673306772908
sg22
F0.0103359173126615
sg23
I141833
sg24
I206121
sg25
I1208649
sg26
I17378
ssS'KISHKILL JOSEPH G'
p141
(dp142
g3
g5
sg4
g5
sg6
I116335
sg7
I00
sg8
F0.5555555555555556
sg9
I-51042
sg10
S'joe.kishkill@enron.com'
p143
sg12
g5
sg13
g5
sg14
F0.0
sg15
g5
sg16
g5
sg17
I465357
sg18
g5
sg19
g5
sg20
I1034346
sg21
F0.0
sg22
F0.0
sg23
I1034346
sg24
I174246
sg25
I704896
sg26
g5
ssS'WHALLEY LAWRENCE G'
p144
(dp145
g3
I6019
sg4
g5
sg6
I57838
sg7
I00
sg8
F0.16666666666666666
sg9
g5
sg10
S'greg.whalley@enron.com'
p146
sg12
I808346
sg13
g5
sg14
F1.0
sg15
g5
sg16
I556
sg17
I301026
sg18
g5
sg19
I3000000
sg20
I6079137
sg21
F0.7410358565737052
sg22
F0.06201550387596899
sg23
I2796177
sg24
I510364
sg25
I4677574
sg26
I3282960
ssS'MCCONNELL MICHAEL S'
p147
(dp148
g3
I3329
sg4
g5
sg6
I81364
sg7
I00
sg8
F0.16666666666666666
sg9
g5
sg10
S'mike.mcconnell@enron.com'
p149
sg12
I554422
sg13
g5
sg14
F0.5584183673469387
sg15
g5
sg16
I2742
sg17
I540
sg18
g5
sg19
I1100000
sg20
I3101279
sg21
F0.3665338645418327
sg22
F0.5012919896640827
sg23
I1478269
sg24
I365038
sg25
I2101364
sg26
I1623010
ssS'SULLIVAN-SHAKLOVITZ COLLEEN'
p150
(dp151
g3
g5
sg4
I181993
sg6
g5
sg7
I00
sg8
F0.5555555555555556
sg9
g5
sg10
g5
sg12
I554422
sg13
g5
sg14
F0.0
sg15
g5
sg16
g5
sg17
I162
sg18
g5
sg19
I100000
sg20
I1362375
sg21
F0.0
sg22
F0.0
sg23
g5
sg24
I162779
sg25
I999356
sg26
I1362375
ssS'WROBEL BRUCE'
p152
(dp153
g3
g5
sg4
g5
sg6
g5
sg7
I00
sg8
F0.8888888888888888
sg9
g5
sg10
g5
sg12
g5
sg13
g5
sg14
F0.0
sg15
g5
sg16
g5
sg17
g5
sg18
g5
sg19
g5
sg20
I139130
sg21
F0.0
sg22
F0.0
sg23
g5
sg24
g5
sg25
g5
sg26
I139130
ssS'LINDHOLM TOD A'
p154
(dp155
g3
g5
sg4
I204075
sg6
I57727
sg7
I00
sg8
F0.3888888888888889
sg9
g5
sg10
S'tod.lindholm@enron.com'
p156
sg12
I175000
sg13
g5
sg14
F0.0
sg15
g5
sg16
g5
sg17
I2630
sg18
g5
sg19
I200000
sg20
I3064208
sg21
F0.0
sg22
F0.0
sg23
I514847
sg24
I236457
sg25
I875889
sg26
I2549361
ssS'MEYER JEROME J'
p157
(dp158
g3
g5
sg4
g5
sg6
I2151
sg7
I00
sg8
F0.7777777777777778
sg9
I-38346
sg10
g5
sg12
g5
sg13
g5
sg14
F0.0
sg15
g5
sg16
g5
sg17
g5
sg18
I38346
sg19
g5
sg20
g5
sg21
F0.0
sg22
F0.0
sg23
g5
sg24
g5
sg25
I2151
sg26
g5
ssS'LAY KENNETH L'
p159
(dp160
g3
I4273
sg4
I202911
sg6
I99832
sg7
I01
sg8
F0.0
sg9
I-300000
sg10
S'kenneth.lay@enron.com'
p161
sg12
I3600000
sg13
g5
sg14
F0.6150510204081633
sg15
I81525000
sg16
I36
sg17
I10359729
sg18
g5
sg19
I7000000
sg20
I49110078
sg21
F0.4900398406374502
sg22
F0.041343669250646
sg23
I14761694
sg24
I1072321
sg25
I103559793
sg26
I34348384
ssS'BUTTS ROBERT H'
p162
(dp163
g3
g5
sg4
g5
sg6
I9410
sg7
I00
sg8
F0.4444444444444444
sg9
I-75000
sg10
S'bob.butts@enron.com'
p164
sg12
I175000
sg13
g5
sg14
F0.0
sg15
g5
sg16
g5
sg17
I150656
sg18
g5
sg19
I750000
sg20
I417619
sg21
F0.0
sg22
F0.0
sg23
I417619
sg24
I261516
sg25
I1271582
sg26
g5
ssS'OLSON CINDY K'
p165
(dp166
g3
I1184
sg4
I77716
sg6
I63791
sg7
I00
sg8
F0.1111111111111111
sg9
g5
sg10
S'cindy.olson@enron.com'
p167
sg12
I100000
sg13
g5
sg14
F0.21836734693877552
sg15
g5
sg16
I52
sg17
I972
sg18
g5
sg19
I750000
sg20
I2606763
sg21
F0.0796812749003984
sg22
F0.03875968992248062
sg23
I969729
sg24
I329078
sg25
I1321557
sg26
I1637034
ssS'MCDONALD REBECCA'
p168
(dp169
g3
I894
sg4
g5
sg6
g5
sg7
I00
sg8
F0.5
sg9
g5
sg10
S'rebecca.mcdonald@enron.com'
p170
sg12
g5
sg13
g5
sg14
F0.1836734693877551
sg15
g5
sg16
I13
sg17
g5
sg18
g5
sg19
g5
sg20
I1691366
sg21
F0.2151394422310757
sg22
F0.002583979328165375
sg23
I934065
sg24
g5
sg25
g5
sg26
I757301
ssS'CUMBERLAND MICHAEL S'
p171
(dp172
g3
g5
sg4
g5
sg6
I22344
sg7
I00
sg8
F0.5555555555555556
sg9
g5
sg10
g5
sg12
I275000
sg13
g5
sg14
F0.0
sg15
g5
sg16
g5
sg17
I713
sg18
g5
sg19
I325000
sg20
I207940
sg21
F0.0
sg22
F0.0
sg23
I207940
sg24
I184899
sg25
I807956
sg26
g5
ssS'GAHN ROBERT S'
p173
(dp174
g3
g5
sg4
I73122
sg6
I50080
sg7
I00
sg8
F0.4444444444444444
sg9
I-1042
sg10
g5
sg12
g5
sg13
g5
sg14
F0.0
sg15
g5
sg16
g5
sg17
I76547
sg18
g5
sg19
I509870
sg20
I318607
sg21
F0.0
sg22
F0.0
sg23
I235370
sg24
I192008
sg25
I900585
sg26
I83237
ssS'HERMANN ROBERT J'
p175
(dp176
g3
g5
sg4
g5
sg6
I48357
sg7
I00
sg8
F0.3888888888888889
sg9
I-280000
sg10
S'robert.hermann@enron.com'
p177
sg12
I150000
sg13
g5
sg14
F0.0
sg15
g5
sg16
g5
sg17
I416441
sg18
g5
sg19
I700000
sg20
I668132
sg21
F0.0
sg22
F0.0
sg23
I480632
sg24
I262663
sg25
I1297461
sg26
I187500
ssS'SCRIMSHAW MATTHEW'
p178
(dp179
g3
g5
sg4
g5
sg6
g5
sg7
I00
sg8
F0.8333333333333334
sg9
g5
sg10
S'matthew.scrimshaw@enron.com'
p180
sg12
g5
sg13
g5
sg14
F0.0
sg15
g5
sg16
g5
sg17
g5
sg18
g5
sg19
g5
sg20
I759557
sg21
F0.0
sg22
F0.0
sg23
g5
sg24
g5
sg25
g5
sg26
I759557
ssS'GATHMANN WILLIAM D'
p181
(dp182
g3
g5
sg4
g5
sg6
g5
sg7
I00
sg8
F0.7777777777777778
sg9
g5
sg10
g5
sg12
g5
sg13
I-72419
sg14
F0.0
sg15
g5
sg16
g5
sg17
g5
sg18
g5
sg19
g5
sg20
I1945360
sg21
F0.0
sg22
F0.0
sg23
I264013
sg24
g5
sg25
g5
sg26
I1753766
ssS'HAEDICKE MARK E'
p183
(dp184
g3
I4009
sg4
I2157527
sg6
I76169
sg7
I00
sg8
F0.0
sg9
I-934484
sg10
S'mark.haedicke@enron.com'
p185
sg12
I983346
sg13
I-329825
sg14
F0.4711734693877551
sg15
g5
sg16
I1941
sg17
I52382
sg18
g5
sg19
I1150000
sg20
I803094
sg21
F0.7171314741035857
sg22
F0.15762273901808785
sg23
I524169
sg24
I374125
sg25
I3859065
sg26
I608750
ssS'BOWEN JR RAYMOND M'
p186
(dp187
g3
I1858
sg4
g5
sg6
I65907
sg7
I01
sg8
F0.16666666666666666
sg9
I-833
sg10
S'raymond.bowen@enron.com'
p188
sg12
I974293
sg13
g5
sg14
F0.4063775510204082
sg15
g5
sg16
I27
sg17
I1621
sg18
g5
sg19
I1350000
sg20
I252055
sg21
F0.5577689243027888
sg22
F0.03875968992248062
sg23
I252055
sg24
I278601
sg25
I2669589
sg26
g5
ssS'GILLIS JOHN'
p189
(dp190
g3
g5
sg4
g5
sg6
g5
sg7
I00
sg8
F0.8333333333333334
sg9
g5
sg10
g5
sg12
g5
sg13
g5
sg14
F0.0
sg15
g5
sg16
g5
sg17
g5
sg18
g5
sg19
g5
sg20
I85641
sg21
F0.0
sg22
F0.0
sg23
I75838
sg24
g5
sg25
g5
sg26
I9803
ssS'FITZGERALD JAY L'
p191
(dp192
g3
I936
sg4
g5
sg6
I23870
sg7
I00
sg8
F0.16666666666666666
sg9
g5
sg10
S'jay.fitzgerald@enron.com'
p193
sg12
I556416
sg13
g5
sg14
F0.18443877551020407
sg15
g5
sg16
I16
sg17
I285414
sg18
g5
sg19
I350000
sg20
I1621236
sg21
F0.00398406374501992
sg22
F0.020671834625323
sg23
I956775
sg24
I199157
sg25
I1414857
sg26
I664461
ssS'REDMOND BRIAN L'
p194
(dp195
g3
I1671
sg4
g5
sg6
I14689
sg7
I00
sg8
F0.3333333333333333
sg9
g5
sg10
S'brian.redmond@enron.com'
p196
sg12
g5
sg13
g5
sg14
F0.2711734693877551
sg15
g5
sg16
I221
sg17
g5
sg18
g5
sg19
g5
sg20
I7890324
sg21
F0.8127490039840638
sg22
F0.12661498708010335
sg23
I381285
sg24
I96840
sg25
I111529
sg26
I7509039
ssS'BAZELIDES PHILIP J'
p197
(dp198
g3
g5
sg4
I684694
sg6
g5
sg7
I00
sg8
F0.6111111111111112
sg9
g5
sg10
g5
sg12
I93750
sg13
g5
sg14
F0.0
sg15
g5
sg16
g5
sg17
I874
sg18
g5
sg19
g5
sg20
I1599641
sg21
F0.0
sg22
F0.0
sg23
g5
sg24
I80818
sg25
I860136
sg26
I1599641
ssS'DURAN WILLIAM D'
p199
(dp200
g3
I904
sg4
g5
sg6
I25785
sg7
I00
sg8
F0.16666666666666666
sg9
g5
sg10
S'w.duran@enron.com'
p201
sg12
I1105218
sg13
g5
sg14
F0.1528061224489796
sg15
g5
sg16
I12
sg17
I1568
sg18
g5
sg19
I750000
sg20
I1640910
sg21
F0.42231075697211157
sg22
F0.007751937984496124
sg23
I189041
sg24
I210692
sg25
I2093263
sg26
I1451869
ssS'FASTOW ANDREW S'
p202
(dp203
g3
g5
sg4
g5
sg6
I55921
sg7
I01
sg8
F0.4444444444444444
sg9
I-1386055
sg10
S'andrew.fastow@enron.com'
p204
sg12
I1736055
sg13
g5
sg14
F0.0
sg15
g5
sg16
g5
sg17
I277464
sg18
g5
sg19
I1300000
sg20
I1794412
sg21
F0.0
sg22
F0.0
sg23
I1794412
sg24
I440698
sg25
I2424083
sg26
g5
ssS'CALGER CHRISTOPHER F'
p205
(dp206
g3
I2598
sg4
g5
sg6
I35818
sg7
I01
sg8
F0.16666666666666666
sg9
I-262500
sg10
S'christopher.calger@enron.com'
p207
sg12
I375304
sg13
g5
sg14
F0.5581632653061225
sg15
g5
sg16
I144
sg17
I486
sg18
g5
sg19
I1250000
sg20
I126027
sg21
F0.7928286852589641
sg22
F0.06459948320413436
sg23
I126027
sg24
I240189
sg25
I1639297
sg26
g5
ssS'RICE KENNETH D'
p208
(dp209
g3
I905
sg4
g5
sg6
I46950
sg7
I01
sg8
F0.1111111111111111
sg9
I-3504386
sg10
S'ken.rice@enron.com'
p210
sg12
I1617011
sg13
g5
sg14
F0.22040816326530613
sg15
g5
sg16
I18
sg17
I174839
sg18
g5
sg19
I1750000
sg20
I22542539
sg21
F0.16733067729083664
sg22
F0.0103359173126615
sg23
I2748364
sg24
I420636
sg25
I505050
sg26
I19794175
ssS'KAMINSKI WINCENTY J'
p211
(dp212
g3
I4607
sg4
g5
sg6
I83585
sg7
I00
sg8
F0.16666666666666666
sg9
g5
sg10
S'vince.kaminski@enron.com'
p213
sg12
I323466
sg13
g5
sg14
F0.14872448979591837
sg15
g5
sg16
I14368
sg17
I4669
sg18
g5
sg19
I400000
sg20
I976037
sg21
F0.16334661354581673
sg22
F0.4418604651162791
sg23
I126027
sg24
I275101
sg25
I1086821
sg26
I850010
ssS'LOCKHART EUGENE E'
p214
(dp215
g3
g5
sg4
g5
sg6
g5
sg7
I00
sg8
F1.0
sg9
g5
sg10
g5
sg12
g5
sg13
g5
sg14
F0.0
sg15
g5
sg16
g5
sg17
g5
sg18
g5
sg19
g5
sg20
g5
sg21
F0.0
sg22
F0.0
sg23
g5
sg24
g5
sg25
g5
sg26
g5
ssS'OVERDYKE JR JERE C'
p216
(dp217
g3
g5
sg4
g5
sg6
I18834
sg7
I00
sg8
F0.5
sg9
g5
sg10
S'jere.overdyke@enron.com'
p218
sg12
I135836
sg13
g5
sg14
F0.0
sg15
g5
sg16
g5
sg17
I176
sg18
g5
sg19
g5
sg20
I7307594
sg21
F0.0
sg22
F0.0
sg23
I2041016
sg24
I94941
sg25
I249787
sg26
I5266578
ssS'PEREIRA PAULO V. FERRAZ'
p219
(dp220
g3
g5
sg4
g5
sg6
I27942
sg7
I00
sg8
F0.7777777777777778
sg9
I-101250
sg10
g5
sg12
g5
sg13
g5
sg14
F0.0
sg15
g5
sg16
g5
sg17
g5
sg18
I101250
sg19
g5
sg20
g5
sg21
F0.0
sg22
F0.0
sg23
g5
sg24
g5
sg25
I27942
sg26
g5
ssS'STABLER FRANK'
p221
(dp222
g3
g5
sg4
g5
sg6
I16514
sg7
I00
sg8
F0.5555555555555556
sg9
g5
sg10
S'frank.stabler@enron.com'
p223
sg12
g5
sg13
g5
sg14
F0.0
sg15
g5
sg16
g5
sg17
I356071
sg18
g5
sg19
I500000
sg20
I511734
sg21
F0.0
sg22
F0.0
sg23
I511734
sg24
I239502
sg25
I1112087
sg26
g5
ssS'SKILLING JEFFREY K'
p224
(dp225
g3
I3627
sg4
g5
sg6
I29336
sg7
I01
sg8
F0.16666666666666666
sg9
g5
sg10
S'jeff.skilling@enron.com'
p226
sg12
I1920000
sg13
g5
sg14
F0.5209183673469387
sg15
g5
sg16
I108
sg17
I22122
sg18
g5
sg19
I5600000
sg20
I26093672
sg21
F0.350597609561753
sg22
F0.07751937984496124
sg23
I6843672
sg24
I1111258
sg25
I8682716
sg26
I19250000
ssS'BLAKE JR. NORMAN P'
p227
(dp228
g3
g5
sg4
g5
sg6
I1279
sg7
I00
sg8
F0.7777777777777778
sg9
I-113784
sg10
g5
sg12
g5
sg13
g5
sg14
F0.0
sg15
g5
sg16
g5
sg17
g5
sg18
I113784
sg19
g5
sg20
g5
sg21
F0.0
sg22
F0.0
sg23
g5
sg24
g5
sg25
I1279
sg26
g5
ssS'SHERRICK JEFFREY B'
p229
(dp230
g3
I613
sg4
g5
sg6
g5
sg7
I00
sg8
F0.5
sg9
g5
sg10
S'jeffrey.sherrick@enron.com'
p231
sg12
g5
sg13
g5
sg14
F0.14872448979591837
sg15
g5
sg16
I25
sg17
g5
sg18
g5
sg19
g5
sg20
I1832468
sg21
F0.1553784860557769
sg22
F0.046511627906976744
sg23
I405999
sg24
g5
sg25
g5
sg26
I1426469
ssS'PRENTICE JAMES'
p232
(dp233
g3
g5
sg4
I564348
sg6
g5
sg7
I00
sg8
F0.6666666666666666
sg9
g5
sg10
S'james.prentice@enron.com'
p234
sg12
g5
sg13
g5
sg14
F0.0
sg15
g5
sg16
g5
sg17
g5
sg18
g5
sg19
g5
sg20
I1095040
sg21
F0.0
sg22
F0.0
sg23
I208809
sg24
g5
sg25
I564348
sg26
I886231
ssS'GRAY RODNEY'
p235
(dp236
g3
g5
sg4
I93585
sg6
g5
sg7
I00
sg8
F0.7222222222222222
sg9
g5
sg10
g5
sg12
I365625
sg13
g5
sg14
F0.0
sg15
g5
sg16
g5
sg17
I680833
sg18
g5
sg19
g5
sg20
g5
sg21
F0.0
sg22
F0.0
sg23
g5
sg24
I6615
sg25
I1146658
sg26
g5
ssS'THE TRAVEL AGENCY IN THE PARK'
p237
(dp238
g3
g5
sg4
g5
sg6
g5
sg7
I00
sg8
F0.8888888888888888
sg9
g5
sg10
g5
sg12
g5
sg13
g5
sg14
F0.0
sg15
g5
sg16
g5
sg17
I362096
sg18
g5
sg19
g5
sg20
g5
sg21
F0.0
sg22
F0.0
sg23
g5
sg24
g5
sg25
I362096
sg26
g5
ssS'NOLES JAMES L'
p239
(dp240
g3
g5
sg4
I774401
sg6
g5
sg7
I00
sg8
F0.7222222222222222
sg9
g5
sg10
g5
sg12
g5
sg13
I-94556
sg14
F0.0
sg15
g5
sg16
g5
sg17
g5
sg18
g5
sg19
g5
sg20
I368705
sg21
F0.0
sg22
F0.0
sg23
I463261
sg24
g5
sg25
I774401
sg26
g5
ssS'KEAN STEVEN J'
p241
(dp242
g3
I12754
sg4
g5
sg6
I41953
sg7
I00
sg8
F0.16666666666666666
sg9
g5
sg10
S'steven.kean@enron.com'
p243
sg12
I300000
sg13
g5
sg14
F0.9283163265306122
sg15
g5
sg16
I6759
sg17
I1231
sg18
g5
sg19
I1000000
sg20
I6153642
sg21
F0.5577689243027888
sg22
F1.0
sg23
I4131594
sg24
I404338
sg25
I1747522
sg26
I2022048
ssS'WASAFF GEORGE'
p244
(dp245
g3
I400
sg4
I831299
sg6
g5
sg7
I00
sg8
F0.1111111111111111
sg9
I-583325
sg10
S'george.wasaff@enron.com'
p246
sg12
I200000
sg13
g5
sg14
F0.08596938775510204
sg15
g5
sg16
I30
sg17
I1425
sg18
g5
sg19
I325000
sg20
I2056427
sg21
F0.08764940239043825
sg22
F0.01808785529715762
sg23
I388167
sg24
I259996
sg25
I1034395
sg26
I1668260
ssS'WHITE JR THOMAS E'
p247
(dp248
g3
g5
sg4
g5
sg6
I81353
sg7
I00
sg8
F0.5
sg9
g5
sg10
S'thomas.white@enron.com'
p249
sg12
g5
sg13
g5
sg14
F0.0
sg15
g5
sg16
g5
sg17
I1085463
sg18
g5
sg19
I450000
sg20
I15144123
sg21
F0.0
sg22
F0.0
sg23
I13847074
sg24
I317543
sg25
I1934359
sg26
I1297049
ssS'CHRISTODOULOU DIOMEDES'
p250
(dp251
g3
g5
sg4
g5
sg6
g5
sg7
I00
sg8
F0.7777777777777778
sg9
g5
sg10
S'diomedes.christodoulou@enron.com'
p252
sg12
g5
sg13
g5
sg14
F0.0
sg15
g5
sg16
g5
sg17
g5
sg18
g5
sg19
g5
sg20
I6077885
sg21
F0.0
sg22
F0.0
sg23
I950730
sg24
g5
sg25
g5
sg26
I5127155
ssS'ALLEN PHILLIP K'
p253
(dp254
g3
I2902
sg4
I2869717
sg6
I13868
sg7
I00
sg8
F0.0
sg9
I-3081055
sg10
S'phillip.allen@enron.com'
p255
sg12
I304805
sg13
I-126027
sg14
F0.35892857142857143
sg15
g5
sg16
I2195
sg17
I152
sg18
g5
sg19
I4175000
sg20
I1729541
sg21
F0.18725099601593626
sg22
F0.16795865633074936
sg23
I126027
sg24
I201955
sg25
I4484442
sg26
I1729541
ssS'SHARP VICTORIA T'
p256
(dp257
g3
I3136
sg4
I187469
sg6
I116337
sg7
I00
sg8
F0.1111111111111111
sg9
g5
sg10
S'vicki.sharp@enron.com'
p258
sg12
I422158
sg13
g5
sg14
F0.6318877551020409
sg15
g5
sg16
I136
sg17
I2401
sg18
g5
sg19
I600000
sg20
I494136
sg21
F0.09561752988047809
sg22
F0.015503875968992248
sg23
I213063
sg24
I248146
sg25
I1576511
sg26
I281073
ssS'JAEDICKE ROBERT'
p259
(dp260
g3
g5
sg4
g5
sg6
g5
sg7
I00
sg8
F0.6111111111111112
sg9
I-25000
sg10
g5
sg12
g5
sg13
I-44093
sg14
F0.0
sg15
g5
sg16
g5
sg17
g5
sg18
I108750
sg19
g5
sg20
I431750
sg21
F0.0
sg22
F0.0
sg23
I44093
sg24
g5
sg25
I83750
sg26
I431750
ssS'WINOKUR JR. HERBERT S'
p261
(dp262
g3
g5
sg4
g5
sg6
I1413
sg7
I00
sg8
F0.7777777777777778
sg9
I-25000
sg10
g5
sg12
g5
sg13
g5
sg14
F0.0
sg15
g5
sg16
g5
sg17
g5
sg18
I108579
sg19
g5
sg20
g5
sg21
F0.0
sg22
F0.0
sg23
g5
sg24
g5
sg25
I84992
sg26
g5
ssS'BROWN MICHAEL'
p263
(dp264
g3
I1486
sg4
g5
sg6
I49288
sg7
I00
sg8
F0.5555555555555556
sg9
g5
sg10
S'michael.brown@enron.com'
p265
sg12
g5
sg13
g5
sg14
F0.19413265306122449
sg15
g5
sg16
I41
sg17
g5
sg18
g5
sg19
g5
sg20
g5
sg21
F0.05179282868525897
sg22
F0.002583979328165375
sg23
g5
sg24
g5
sg25
I49288
sg26
g5
ssS'BADUM JAMES P'
p266
(dp267
g3
g5
sg4
I178980
sg6
I3486
sg7
I00
sg8
F0.7222222222222222
sg9
g5
sg10
g5
sg12
g5
sg13
g5
sg14
F0.0
sg15
g5
sg16
g5
sg17
g5
sg18
g5
sg19
g5
sg20
I257817
sg21
F0.0
sg22
F0.0
sg23
g5
sg24
g5
sg25
I182466
sg26
I257817
ssS'HUGHES JAMES A'
p268
(dp269
g3
I719
sg4
g5
sg6
g5
sg7
I00
sg8
F0.5
sg9
g5
sg10
S'james.hughes@enron.com'
p270
sg12
g5
sg13
g5
sg14
F0.15025510204081632
sg15
g5
sg16
I34
sg17
g5
sg18
g5
sg19
g5
sg20
I1118394
sg21
F0.1394422310756972
sg22
F0.012919896640826873
sg23
I363428
sg24
g5
sg25
g5
sg26
I754966
ssS'REYNOLDS LAWRENCE'
p271
(dp272
g3
g5
sg4
I51365
sg6
I8409
sg7
I00
sg8
F0.3333333333333333
sg9
I-200000
sg10
g5
sg12
I156250
sg13
I-140264
sg14
F0.0
sg15
g5
sg16
g5
sg17
I202052
sg18
g5
sg19
I100000
sg20
I4221891
sg21
F0.0
sg22
F0.0
sg23
I201483
sg24
I76399
sg25
I394475
sg26
I4160672
ssS'DIMICHELE RICHARD G'
p273
(dp274
g3
g5
sg4
g5
sg6
I35812
sg7
I00
sg8
F0.4444444444444444
sg9
g5
sg10
S'richard.dimichele@enron.com'
p275
sg12
I694862
sg13
g5
sg14
F0.0
sg15
g5
sg16
g5
sg17
I374689
sg18
g5
sg19
I1000000
sg20
I8317782
sg21
F0.0
sg22
F0.0
sg23
I126027
sg24
I262788
sg25
I2368151
sg26
I8191755
ssS'CARTER REBECCA C'
p276
(dp277
g3
I312
sg4
g5
sg6
g5
sg7
I00
sg8
F0.2222222222222222
sg9
I-159792
sg10
S'rebecca.carter@enron.com'
p278
sg12
I75000
sg13
I-307301
sg14
F0.05
sg15
g5
sg16
I15
sg17
I540
sg18
g5
sg19
I300000
sg20
g5
sg21
F0.11553784860557768
sg22
F0.01808785529715762
sg23
I307301
sg24
I261809
sg25
I477557
sg26
g5
ssS'YEAP SOON'
p279
(dp280
g3
g5
sg4
g5
sg6
I55097
sg7
I00
sg8
F0.7777777777777778
sg9
g5
sg10
g5
sg12
g5
sg13
g5
sg14
F0.0
sg15
g5
sg16
g5
sg17
g5
sg18
g5
sg19
g5
sg20
I192758
sg21
F0.0
sg22
F0.0
sg23
g5
sg24
g5
sg25
I55097
sg26
I192758
ssS'MURRAY JULIA H'
p281
(dp282
g3
I2192
sg4
g5
sg6
I57580
sg7
I00
sg8
F0.16666666666666666
sg9
g5
sg10
S'julia.murray@enron.com'
p283
sg12
I125000
sg13
g5
sg14
F0.10076530612244898
sg15
g5
sg16
I45
sg17
I330
sg18
g5
sg19
I400000
sg20
I597461
sg21
F0.043824701195219126
sg22
F0.00516795865633075
sg23
I196983
sg24
I229284
sg25
I812194
sg26
I400478
ssS'GARLAND C KEVIN'
p284
(dp285
g3
I209
sg4
g5
sg6
I48405
sg7
I00
sg8
F0.16666666666666666
sg9
g5
sg10
S'kevin.garland@enron.com'
p286
sg12
I375304
sg13
g5
sg14
F0.045408163265306126
sg15
g5
sg16
I44
sg17
I60814
sg18
g5
sg19
I850000
sg20
I896153
sg21
F0.0398406374501992
sg22
F0.06976744186046512
sg23
I259907
sg24
I231946
sg25
I1566469
sg26
I636246
ssS'DODSON KEITH'
p287
(dp288
g3
I176
sg4
g5
sg6
I28164
sg7
I00
sg8
F0.3888888888888889
sg9
g5
sg10
S'keith.dodson@enron.com'
p289
sg12
g5
sg13
g5
sg14
F0.029081632653061223
sg15
g5
sg16
I14
sg17
I774
sg18
g5
sg19
I70000
sg20
g5
sg21
F0.0398406374501992
sg22
F0.007751937984496124
sg23
g5
sg24
I221003
sg25
I319941
sg26
g5
ssS'YEAGER F SCOTT'
p290
(dp291
g3
g5
sg4
g5
sg6
I53947
sg7
I01
sg8
F0.5555555555555556
sg9
g5
sg10
S'scott.yeager@enron.com'
p292
sg12
g5
sg13
g5
sg14
F0.0
sg15
g5
sg16
g5
sg17
I147950
sg18
g5
sg19
g5
sg20
I11884758
sg21
F0.0
sg22
F0.0
sg23
I3576206
sg24
I158403
sg25
I360300
sg26
I8308552
ssS'HIRKO JOSEPH'
p293
(dp294
g3
g5
sg4
I10259
sg6
I77978
sg7
I01
sg8
F0.6111111111111112
sg9
g5
sg10
S'joe.hirko@enron.com'
p295
sg12
g5
sg13
g5
sg14
F0.0
sg15
g5
sg16
g5
sg17
I2856
sg18
g5
sg19
g5
sg20
I30766064
sg21
F0.0
sg22
F0.0
sg23
g5
sg24
g5
sg25
I91093
sg26
I30766064
ssS'DERRICK JR. JAMES V'
p296
(dp297
g3
I2181
sg4
g5
sg6
I51124
sg7
I00
sg8
F0.05555555555555555
sg9
I-1284000
sg10
S'james.derrick@enron.com'
p298
sg12
I484000
sg13
I-1787380
sg14
F0.35739795918367345
sg15
g5
sg16
I909
sg17
I7482
sg18
g5
sg19
I800000
sg20
I8831913
sg21
F0.2549800796812749
sg22
F0.05167958656330749
sg23
I1787380
sg24
I492375
sg25
I550981
sg26
I8831913
ssS'FREVERT MARK A'
p299
(dp300
g3
I3275
sg4
I6426990
sg6
I86987
sg7
I00
sg8
F0.0
sg9
I-3367011
sg10
S'mark.frevert@enron.com'
p301
sg12
I1617011
sg13
g5
sg14
F0.7599489795918367
sg15
I2000000
sg16
I21
sg17
I7427621
sg18
g5
sg19
I2000000
sg20
I14622185
sg21
F0.9641434262948207
sg22
F0.015503875968992248
sg23
I4188667
sg24
I1060932
sg25
I17252530
sg26
I10433518
ssS'PAI LOU L'
p302
(dp303
g3
g5
sg4
g5
sg6
I32047
sg7
I00
sg8
F0.5
sg9
g5
sg10
S'lou.pai@enron.com'
p304
sg12
g5
sg13
g5
sg14
F0.0
sg15
g5
sg16
g5
sg17
I1829457
sg18
g5
sg19
I1000000
sg20
I23817930
sg21
F0.0
sg22
F0.0
sg23
I8453763
sg24
I261879
sg25
I3123383
sg26
I15364167
ssS'BAY FRANKLIN R'
p305
(dp306
g3
g5
sg4
I260455
sg6
I129142
sg7
I00
sg8
F0.3888888888888889
sg9
I-201641
sg10
S'frank.bay@enron.com'
p307
sg12
g5
sg13
I-82782
sg14
F0.0
sg15
g5
sg16
g5
sg17
I69
sg18
g5
sg19
I400000
sg20
I63014
sg21
F0.0
sg22
F0.0
sg23
I145796
sg24
I239671
sg25
I827696
sg26
g5
ssS'HAYSLETT RODERICK J'
p308
(dp309
g3
I2649
sg4
g5
sg6
g5
sg7
I00
sg8
F0.5555555555555556
sg9
g5
sg10
S'rod.hayslett@enron.com'
p310
sg12
g5
sg13
g5
sg14
F0.14566326530612245
sg15
g5
sg16
I1061
sg17
g5
sg18
g5
sg19
g5
sg20
I346663
sg21
F0.1394422310756972
sg22
F0.09819121447028424
sg23
I346663
sg24
g5
sg25
g5
sg26
g5
ssS'FUGH JOHN L'
p311
(dp312
g3
g5
sg4
I50591
sg6
g5
sg7
I00
sg8
F0.7777777777777778
sg9
g5
sg10
g5
sg12
g5
sg13
g5
sg14
F0.0
sg15
g5
sg16
g5
sg17
g5
sg18
g5
sg19
g5
sg20
I176378
sg21
F0.0
sg22
F0.0
sg23
g5
sg24
g5
sg25
I50591
sg26
I176378
ssS'FALLON JAMES B'
p313
(dp314
g3
I1755
sg4
g5
sg6
I95924
sg7
I00
sg8
F0.16666666666666666
sg9
g5
sg10
S'jim.fallon@enron.com'
p315
sg12
I374347
sg13
g5
sg14
F0.4091836734693878
sg15
g5
sg16
I75
sg17
I401481
sg18
g5
sg19
I2500000
sg20
I2332399
sg21
F0.16733067729083664
sg22
F0.09560723514211886
sg23
I1392142
sg24
I304588
sg25
I3676340
sg26
I940257
ssS'KOENIG MARK E'
p316
(dp317
g3
I2374
sg4
g5
sg6
I127017
sg7
I01
sg8
F0.16666666666666666
sg9
g5
sg10
S'mark.koenig@enron.com'
p318
sg12
I300000
sg13
g5
sg14
F0.5793367346938776
sg15
g5
sg16
I61
sg17
I150458
sg18
g5
sg19
I700000
sg20
I1920055
sg21
F0.21115537848605578
sg22
F0.03875968992248062
sg23
I1248318
sg24
I309946
sg25
I1587421
sg26
I671737
ssS'SAVAGE FRANK'
p319
(dp320
g3
g5
sg4
g5
sg6
g5
sg7
I00
sg8
F0.8333333333333334
sg9
I-121284
sg10
g5
sg12
g5
sg13
g5
sg14
F0.0
sg15
g5
sg16
g5
sg17
g5
sg18
I125034
sg19
g5
sg20
g5
sg21
F0.0
sg22
F0.0
sg23
g5
sg24
g5
sg25
I3750
sg26
g5
ssS'IZZO LAWRENCE L'
p321
(dp322
g3
I496
sg4
g5
sg6
I28093
sg7
I00
sg8
F0.2222222222222222
sg9
g5
sg10
S'larry.izzo@enron.com'
p323
sg12
I312500
sg13
g5
sg14
F0.1114795918367347
sg15
g5
sg16
I19
sg17
I1553729
sg18
g5
sg19
g5
sg20
I5819980
sg21
F0.11155378486055777
sg22
F0.012919896640826873
sg23
I3654808
sg24
I85274
sg25
I1979596
sg26
I2165172
ssS'TILNEY ELIZABETH A'
p324
(dp325
g3
I460
sg4
g5
sg6
g5
sg7
I00
sg8
F0.16666666666666666
sg9
I-575000
sg10
S'elizabeth.tilney@enron.com'
p326
sg12
I275000
sg13
g5
sg14
F0.09668367346938775
sg15
g5
sg16
I19
sg17
I152055
sg18
g5
sg19
I300000
sg20
I1168042
sg21
F0.0398406374501992
sg22
F0.028423772609819122
sg23
I576792
sg24
I247338
sg25
I399393
sg26
I591250
ssS'BUY RICHARD B'
p327
(dp328
g3
I3523
sg4
I649584
sg6
g5
sg7
I00
sg8
F0.1111111111111111
sg9
I-694862
sg10
S'rick.buy@enron.com'
p329
sg12
I769862
sg13
g5
sg14
F0.5951530612244897
sg15
g5
sg16
I1053
sg17
I400572
sg18
g5
sg19
I900000
sg20
I3444470
sg21
F0.6215139442231076
sg22
F0.1834625322997416
sg23
I901657
sg24
I330546
sg25
I2355702
sg26
I2542813
ssS'GRAMM WENDY L'
p330
(dp331
g3
g5
sg4
g5
sg6
g5
sg7
I00
sg8
F0.8888888888888888
sg9
g5
sg10
g5
sg12
g5
sg13
g5
sg14
F0.0
sg15
g5
sg16
g5
sg17
g5
sg18
I119292
sg19
g5
sg20
g5
sg21
F0.0
sg22
F0.0
sg23
g5
sg24
g5
sg25
I119292
sg26
g5
ssS'CAUSEY RICHARD A'
p332
(dp333
g3
I1892
sg4
g5
sg6
I30674
sg7
I01
sg8
F0.16666666666666666
sg9
I-235000
sg10
S'richard.causey@enron.com'
p334
sg12
I350000
sg13
g5
sg14
F0.40433673469387754
sg15
g5
sg16
I49
sg17
I307895
sg18
g5
sg19
I1000000
sg20
I2502063
sg21
F0.23107569721115537
sg22
F0.031007751937984496
sg23
I2502063
sg24
I415189
sg25
I1868758
sg26
g5
ssS'DONAHUE JR JEFFREY M'
p335
(dp336
g3
I865
sg4
g5
sg6
I96268
sg7
I00
sg8
F0.16666666666666666
sg9
I-300000
sg10
S'jeff.donahue@enron.com'
p337
sg12
g5
sg13
g5
sg14
F0.19693877551020408
sg15
g5
sg16
I22
sg17
I891
sg18
g5
sg19
I800000
sg20
I1080988
sg21
F0.749003984063745
sg22
F0.028423772609819122
sg23
I315068
sg24
I278601
sg25
I875760
sg26
I765920
ssS'GLISAN JR BEN F'
p338
(dp339
g3
I873
sg4
g5
sg6
I125978
sg7
I01
sg8
F0.16666666666666666
sg9
g5
sg10
S'ben.glisan@enron.com'
p340
sg12
I71023
sg13
g5
sg14
F0.2229591836734694
sg15
g5
sg16
I16
sg17
I200308
sg18
g5
sg19
I600000
sg20
I778546
sg21
F0.20717131474103587
sg22
F0.015503875968992248
sg23
I393818
sg24
I274975
sg25
I1272284
sg26
I384728
ss.