(dp0
S'METTS MARK'
p1
(dp2
S'to_messages'
p3
I807
sS'deferral_payments'
p4
S'NaN'
p5
sS'expenses'
p6
I94299
sS'poi'
p7
I00
sS'number_of_missing_fields'
p8
F0.3125
sS'deferred_income'
p9
F1.0
sS'email_address'
p10
S'mark.metts@enron.com'
p11
sS'long_term_incentive'
p12
F0.0
sS'restricted_stock_deferred'
p13
g5
sS'shared_receipt_with_poi'
p14
I702
sS'loan_advances'
p15
g5
sS'from_messages'
p16
I29
sS'other'
p17
F0.00023426074109058606
sS'director_fees'
p18
g5
sS'bonus'
p19
I600000
sS'total_stock_value'
p20
F0.020420376306423883
sS'from_poi_to_this_person'
p21
I38
sS'from_this_person_to_poi'
p22
F0.0016420361247947454
sS'restricted_stock'
p23
F0.19387530571561465
sS'salary'
p24
I365788
sS'total_payments'
p25
F0.0615461616354239
sS'exercised_stock_options'
p26
F0.0
ssS'BAXTER JOHN C'
p27
(dp28
g3
g5
sg4
I1295738
sg6
I11200
sg7
I00
sg8
F0.4375
sg9
F0.6044799288662835
sg10
g5
sg12
F0.3082451353957703
sg13
g5
sg14
g5
sg15
g5
sg16
g5
sg17
F0.358163535807764
sg18
g5
sg19
I1200000
sg20
F0.3462283882552108
sg21
g5
sg22
F0.0
sg23
F0.3979684849416141
sg24
I267102
sg25
F0.3265806812102341
sg26
F0.21714002805168708
ssS'ELLIOTT STEVEN'
p29
(dp30
g3
g5
sg4
g5
sg6
I78552
sg7
I00
sg8
F0.5
sg9
F0.8856492977657142
sg10
S'steven.elliott@enron.com'
p31
sg12
F0.0
sg13
g5
sg14
g5
sg15
g5
sg16
g5
sg17
F0.0017449732559052218
sg18
g5
sg19
I350000
sg20
F0.2182016794007249
sg21
g5
sg22
F0.0
sg23
F0.26701905058996217
sg24
I170941
sg25
F0.012272113133552007
sg26
F0.15895253939535456
ssS'CORDES WILLIAM R'
p32
(dp33
g3
I764
sg4
g5
sg6
g5
sg7
I00
sg8
F0.5625
sg9
F1.0
sg10
S'bill.cordes@enron.com'
p34
sg12
F0.0
sg13
g5
sg14
I58
sg15
g5
sg16
I12
sg17
F0.0
sg18
g5
sg19
g5
sg20
F0.03512731207439157
sg21
I10
sg22
F0.0
sg23
F0.18179578549492315
sg24
g5
sg25
F0.0
sg26
F0.021187305597492094
ssS'HANNON KEVIN P'
p35
(dp36
g3
I1045
sg4
g5
sg6
I34039
sg7
I01
sg8
F0.125
sg9
F0.11054004895579425
sg10
S'kevin.hannon@enron.com'
p37
sg12
F0.31426134316366705
sg13
g5
sg14
I1035
sg15
g5
sg16
I32
sg17
F0.0015280801214816965
sg18
g5
sg19
I1500000
sg20
F0.20886482337626516
sg21
I32
sg22
F0.034482758620689655
sg23
F0.21016567178658516
sg24
I243293
sg25
F0.016732734271437292
sg26
F0.18000355846623733
ssS'MORDAUNT KRISTINA M'
p38
(dp39
g3
g5
sg4
g5
sg6
I35018
sg7
I00
sg8
F0.625
sg9
F1.0
sg10
S'kristina.mordaunt@enron.com'
p40
sg12
F0.0
sg13
g5
sg14
g5
sg15
g5
sg16
g5
sg17
F0.0001899666124590902
sg18
g5
sg19
I325000
sg20
F0.0081986923987437
sg21
g5
sg22
F0.0
sg23
F0.17098678277639742
sg24
I267093
sg25
F0.036430714799510565
sg26
F0.0
ssS'MEYER ROCKFORD G'
p41
(dp42
g3
I232
sg4
I1848227
sg6
g5
sg7
I00
sg8
F0.4375
sg9
F1.0
sg10
S'rockford.meyer@enron.com'
p43
sg12
F0.0
sg13
g5
sg14
I22
sg15
g5
sg16
I28
sg17
F0.0
sg18
g5
sg19
g5
sg20
F0.032455725558295595
sg21
I0
sg22
F0.0
sg23
F0.1864183855103381
sg24
g5
sg25
F0.1071278821135219
sg26
F0.016040043341260683
ssS'MCMAHON JEFFREY'
p44
(dp45
g3
I2355
sg4
g5
sg6
I137108
sg7
I00
sg8
F0.1875
sg9
F1.0
sg10
S'jeffrey.mcmahon@enron.com'
p46
sg12
F0.13504439081329195
sg13
g5
sg14
I2228
sg15
g5
sg16
I48
sg17
F0.04003341042845347
sg18
g5
sg19
I2600000
sg20
F0.05540211950234463
sg21
I58
sg22
F0.042692939244663386
sg23
F0.19227904410790367
sg24
I370448
sg25
F0.23763303121339305
sg26
F0.03588544833034216
ssS'HORTON STANLEY C'
p47
(dp48
g3
I2350
sg4
I3131860
sg6
g5
sg7
I00
sg8
F0.4375
sg9
F1.0
sg10
S'stanley.horton@enron.com'
p49
sg12
F0.0
sg13
g5
sg14
I1074
sg15
g5
sg16
I1073
sg17
F0.0
sg18
g5
sg19
g5
sg20
F0.23695890287089416
sg21
I44
sg22
F0.024630541871921183
sg23
F0.282682485385584
sg24
g5
sg25
F0.1815304769793184
sg26
F0.16936092312620815
ssS'PIPER GREGORY F'
p50
(dp51
g3
I1238
sg4
I1130036
sg6
I43057
sg7
I00
sg8
F0.0625
sg9
F0.9904882053518077
sg10
S'greg.piper@enron.com'
p52
sg12
F0.0
sg13
I-409554
sg14
I742
sg15
g5
sg16
I222
sg17
F0.00010474417044165286
sg18
g5
sg19
I400000
sg20
F0.030002541045149492
sg21
I61
sg22
F0.07881773399014778
sg23
F0.18320714067063776
sg24
I197091
sg25
F0.10071734406489946
sg26
F0.028612369785098284
ssS'HUMPHREY GENE E'
p53
(dp54
g3
I128
sg4
I2964506
sg6
I4994
sg7
I00
sg8
F0.375
sg9
F1.0
sg10
S'gene.humphrey@enron.com'
p55
sg12
F0.0
sg13
g5
sg14
I119
sg15
g5
sg16
I17
sg17
F0.0
sg18
g5
sg19
g5
sg20
F0.07552252979431426
sg21
I10
sg22
F0.027914614121510674
sg23
F0.15831260784688922
sg24
I130724
sg25
F0.17969677490779612
sg26
F0.0741975964166232
ssS'UMANOFF ADAM S'
p56
(dp57
g3
I111
sg4
g5
sg6
I53122
sg7
I00
sg8
F0.5
sg9
F1.0
sg10
S'adam.umanoff@enron.com'
p58
sg12
F0.0
sg13
g5
sg14
I41
sg15
g5
sg16
I18
sg17
F0.0
sg18
g5
sg19
I788750
sg20
F0.0014311189650867407
sg21
I12
sg22
F0.0
sg23
F0.15831260784688922
sg24
I288589
sg25
F0.06552436077491243
sg26
F0.0
ssS'BLACHMAN JEREMY M'
p59
(dp60
g3
I2475
sg4
g5
sg6
I84208
sg7
I00
sg8
F0.1875
sg9
F1.0
sg10
S'jeremy.blachman@enron.com'
p61
sg12
F0.16165963842894496
sg13
g5
sg14
I2326
sg15
g5
sg16
I14
sg17
F3.662006987163185e-05
sg18
g5
sg19
I850000
sg20
F0.03240642363490715
sg21
I25
sg22
F0.003284072249589491
sg23
F0.16980336945472174
sg24
I248546
sg25
F0.116784900533429
sg26
F0.02487523265894526
ssS'SUNDE MARTIN'
p62
(dp63
g3
I2647
sg4
g5
sg6
g5
sg7
I00
sg8
F0.3125
sg9
F1.0
sg10
S'marty.sunde@enron.com'
p64
sg12
F0.09259685383196053
sg13
g5
sg14
I2565
sg15
g5
sg16
I38
sg17
F0.01496064486865983
sg18
g5
sg19
I700000
sg20
F0.024115845953008287
sg21
I37
sg22
F0.021346469622331693
sg23
F0.20079610668019163
sg24
I257486
sg25
F0.08955550287407123
sg26
F0.0
ssS'GIBBS DANA R'
p65
(dp66
g3
I169
sg4
I504610
sg6
g5
sg7
I00
sg8
F0.4375
sg9
F1.0
sg10
S'dana.gibbs@enron.com'
p67
sg12
F0.08977124184276779
sg13
g5
sg14
I23
sg15
g5
sg16
I12
sg17
F0.0
sg18
g5
sg19
g5
sg20
F0.07342929151578163
sg21
I0
sg22
F0.0
sg23
F0.15831260784688922
sg24
g5
sg25
F0.05602204430306743
sg26
F0.07210135817178304
ssS'LOWRY CHARLES P'
p68
(dp69
g3
g5
sg4
g5
sg6
g5
sg7
I00
sg8
F0.875
sg9
F1.0
sg10
g5
sg12
F0.0
sg13
I-153686
sg14
g5
sg15
g5
sg16
g5
sg17
F0.0
sg18
g5
sg19
g5
sg20
F0.01351171303671059
sg21
g5
sg22
F0.0
sg23
F0.16765433365484278
sg24
g5
sg25
F0.0
sg26
F0.012097907616651906
ssS'COLWELL WESLEY'
p70
(dp71
g3
I1758
sg4
I27610
sg6
I16514
sg7
I01
sg8
F0.1875
sg9
F0.9588909440912046
sg10
S'wes.colwell@enron.com'
p72
sg12
F0.0
sg13
g5
sg14
I1132
sg15
g5
sg16
I40
sg17
F0.013697521723308176
sg18
g5
sg19
I1200000
sg20
F0.02409384022288494
sg21
I240
sg22
F0.0180623973727422
sg23
F0.2007548947929814
sg24
I288542
sg25
F0.0863840839575413
sg26
F0.0
ssS'MULLER MARK S'
p73
(dp74
g3
I136
sg4
I842924
sg6
g5
sg7
I00
sg8
F0.125
sg9
F0.7948285377238694
sg10
S's..muller@enron.com'
p75
sg12
F0.3353546075996699
sg13
g5
sg14
I114
sg15
g5
sg16
I16
sg17
F0.00012749708150160057
sg18
g5
sg19
I1100000
sg20
F0.047417512348281766
sg21
I12
sg22
F0.0
sg23
F0.1802271200476745
sg24
I251654
sg25
F0.18560002503980574
sg26
F0.034333933648451095
ssS'JACKSON CHARLENE R'
p76
(dp77
g3
I258
sg4
g5
sg6
I10181
sg7
I00
sg8
F0.25
sg9
F1.0
sg10
S'charlene.jackson@enron.com'
p78
sg12
F0.0
sg13
g5
sg14
I117
sg15
g5
sg16
I56
sg17
F0.0003278304049169983
sg18
g5
sg19
I250000
sg20
F0.024986175825069637
sg21
I25
sg22
F0.031198686371100164
sg23
F0.1911770820087379
sg24
I288558
sg25
F0.031947430318915546
sg26
F0.006015166580944511
ssS'WESTFAHL RICHARD K'
p79
(dp80
g3
g5
sg4
g5
sg6
I51870
sg7
I00
sg8
F0.5625
sg9
F0.9969181477154628
sg10
S'dick.westfahl@enron.com'
p81
sg12
F0.04978996912602513
sg13
g5
sg14
g5
sg15
g5
sg16
g5
sg17
F0.05400517877796942
sg18
g5
sg19
g5
sg20
F0.013924726186887006
sg21
g5
sg22
F0.0
sg23
F0.18171038328027658
sg24
I63744
sg25
F0.044175260092287914
sg26
F0.0
ssS'WALTERS GARETH W'
p82
(dp83
g3
g5
sg4
I53625
sg6
I33785
sg7
I00
sg8
F0.8125
sg9
F1.0
sg10
g5
sg12
F0.0
sg13
g5
sg14
g5
sg15
g5
sg16
g5
sg17
F0.0
sg18
g5
sg19
g5
sg20
F0.03487233122505672
sg21
g5
sg22
F0.0
sg23
F0.15831260784688922
sg24
g5
sg25
F0.005066503289662443
sg26
F0.03348913920220669
ssS'WALLS JR ROBERT H'
p84
(dp85
g3
I671
sg4
g5
sg6
I50936
sg7
I00
sg8
F0.1875
sg9
F1.0
sg10
S'rob.walls@enron.com'
p86
sg12
F0.10509337016080665
sg13
g5
sg14
I215
sg15
g5
sg16
I146
sg17
F2.6926521964435183e-07
sg18
g5
sg19
I850000
sg20
F0.19289385639936857
sg21
I17
sg22
F0.0
sg23
F0.252677678547766
sg24
I357091
sg25
F0.1042618097171835
sg26
F0.1412772202515083
ssS'KITCHEN LOUISE'
p87
(dp88
g3
I8305
sg4
g5
sg6
I5774
sg7
I00
sg8
F0.25
sg9
F1.0
sg10
S'louise.kitchen@enron.com'
p89
sg12
F0.0
sg13
g5
sg14
I3669
sg15
g5
sg16
I1728
sg17
F0.012645367877547872
sg18
g5
sg19
I3100000
sg20
F0.019189645804141797
sg21
I251
sg22
F0.3185550082101806
sg23
F0.1866443214760615
sg24
I271442
sg25
F0.20119605646244348
sg26
F0.0026341361052879563
ssS'CHAN RONNIE'
p90
(dp91
g3
g5
sg4
g5
sg6
g5
sg7
I00
sg8
F0.875
sg9
F0.9718113244374336
sg10
g5
sg12
F0.0
sg13
I-32460
sg14
g5
sg15
g5
sg16
g5
sg17
F0.0
sg18
I98784
sg19
g5
sg20
F0.0014311189650867407
sg21
g5
sg22
F0.0
sg23
F0.16028567253545012
sg24
g5
sg25
F0.0
sg26
F0.0
ssS'BELFER ROBERT'
p92
(dp93
g3
g5
sg4
I-102500
sg6
g5
sg7
I00
sg8
F0.75
sg9
F1.0
sg10
g5
sg12
F0.0
sg13
I44093
sg14
g5
sg15
g5
sg16
g5
sg17
F0.0
sg18
I3285
sg19
g5
sg20
F0.0
sg21
g5
sg22
F0.0
sg23
F0.15831260784688922
sg24
g5
sg25
F0.0059411576157236065
sg26
F0.000106773489127501
ssS'SHANKMAN JEFFREY A'
p94
(dp95
g3
I3221
sg4
g5
sg6
I178979
sg7
I00
sg8
F0.1875
sg9
F1.0
sg10
S'jeffrey.shankman@enron.com'
p96
sg12
F0.10775028889691327
sg13
g5
sg14
I1730
sg15
g5
sg16
I2681
sg17
F0.0001603474382982115
sg18
g5
sg19
I2000000
sg20
F0.06868280482958915
sg21
I94
sg22
F0.13628899835796388
sg23
F0.19661516680116248
sg24
I304110
sg25
F0.17613080516306884
sg26
F0.04686650850105493
ssS'WODRASKA JOHN'
p97
(dp98
g3
g5
sg4
g5
sg6
g5
sg7
I00
sg8
F0.9375
sg9
F1.0
sg10
S'john.wodraska@enron.com'
p99
sg12
F0.0
sg13
g5
sg14
g5
sg15
g5
sg16
g5
sg17
F0.025524054067917575
sg18
g5
sg19
g5
sg20
F0.0014311189650867407
sg21
g5
sg22
F0.0
sg23
F0.15831260784688922
sg24
g5
sg25
F0.010988707163529059
sg26
F0.0
ssS'BERGSIEKER RICHARD P'
p100
(dp101
g3
I383
sg4
g5
sg6
I59175
sg7
I00
sg8
F0.1875
sg9
F0.8613700088974217
sg10
S'rick.bergsieker@enron.com'
p102
sg12
F0.03503105860458029
sg13
g5
sg14
I233
sg15
g5
sg16
I59
sg17
F0.057530668298772916
sg18
g5
sg19
I250000
sg20
F0.02282825108615967
sg21
I4
sg22
F0.0
sg23
F0.19838472500243745
sg24
I187922
sg25
F0.035870101370639555
sg26
F0.0
ssS'URQUHART JOHN A'
p103
(dp104
g3
g5
sg4
g5
sg6
I228656
sg7
I00
sg8
F0.875
sg9
F0.9895371114939964
sg10
g5
sg12
F0.0
sg13
g5
sg14
g5
sg15
g5
sg16
g5
sg17
F0.0
sg18
I36666
sg19
g5
sg20
F0.0014311189650867407
sg21
g5
sg22
F0.0
sg23
F0.15831260784688922
sg24
g5
sg25
F0.013253476446642898
sg26
F0.0
ssS'BIBI PHILIPPE A'
p105
(dp106
g3
I1607
sg4
g5
sg6
I38559
sg7
I00
sg8
F0.1875
sg9
F1.0
sg10
S'philippe.bibi@enron.com'
p107
sg12
F0.07185419150260211
sg13
g5
sg14
I1336
sg15
g5
sg16
I40
sg17
F0.05731148640998242
sg18
g5
sg19
I1000000
sg20
F0.06127553975138783
sg21
I23
sg22
F0.013136288998357963
sg23
F0.1812941310625543
sg24
I213625
sg25
F0.11868363654490095
sg26
F0.04764125823829789
ssS'RIEKER PAULA H'
p108
(dp109
g3
I1328
sg4
I214678
sg6
I33271
sg7
I01
sg8
F0.125
sg9
F0.9714643306987301
sg10
S'paula.rieker@enron.com'
p110
sg12
F0.0
sg13
g5
sg14
I1258
sg15
g5
sg16
I82
sg17
F0.000262533589153243
sg18
g5
sg19
I700000
sg20
F0.0637121063680396
sg21
I35
sg22
F0.07881773399014778
sg23
F0.17555406890189892
sg24
I249201
sg25
F0.06370659839455431
sg26
F0.05315070527058645
ssS'WHALEY DAVID A'
p111
(dp112
g3
g5
sg4
g5
sg6
g5
sg7
I00
sg8
F1.0
sg9
F1.0
sg10
g5
sg12
F0.0
sg13
g5
sg14
g5
sg15
g5
sg16
g5
sg17
F0.0
sg18
g5
sg19
g5
sg20
F0.004635192219241207
sg21
g5
sg22
F0.0
sg23
F0.15831260784688922
sg24
g5
sg25
F0.0
sg26
F0.003208665235826071
ssS'BECK SALLY W'
p113
(dp114
g3
I7315
sg4
g5
sg6
I37172
sg7
I00
sg8
F0.3125
sg9
F1.0
sg10
S'sally.beck@enron.com'
p115
sg12
F0.0
sg13
g5
sg14
I2639
sg15
g5
sg16
I4343
sg17
F7.620205715935157e-05
sg18
g5
sg19
I700000
sg20
F0.0055215557648732524
sg21
I144
sg22
F0.6338259441707718
sg23
F0.1659730953239461
sg24
I231330
sg25
F0.05616961686199068
sg26
F0.0
ssS'HAUG DAVID L'
p116
(dp117
g3
I573
sg4
g5
sg6
I475
sg7
I00
sg8
F0.5
sg9
F1.0
sg10
S'david.haug@enron.com'
p118
sg12
F0.0
sg13
g5
sg14
I471
sg15
g5
sg16
I19
sg17
F0.0
sg18
g5
sg19
g5
sg20
F0.07339761365058932
sg21
I4
sg22
F0.011494252873563218
sg23
F0.2930900065185292
sg24
g5
sg25
F2.7532193828963056e-05
sg26
F0.0
ssS'ECHOLS JOHN B'
p119
(dp120
g3
g5
sg4
g5
sg6
I21530
sg7
I00
sg8
F0.5
sg9
F1.0
sg10
S'john.echols@enron.com'
p121
sg12
F0.43432176955335544
sg13
g5
sg14
g5
sg15
g5
sg16
g5
sg17
F0.0072398685931875095
sg18
g5
sg19
I200000
sg20
F0.03417814456446944
sg21
g5
sg22
F0.0
sg23
F0.18308247167260208
sg24
I182245
sg25
F0.15605386572288238
sg26
F0.019548746957036817
ssS'MENDELSOHN JOHN'
p122
(dp123
g3
g5
sg4
g5
sg6
I148
sg7
I00
sg8
F0.875
sg9
F0.9703942430999325
sg10
g5
sg12
F0.0
sg13
g5
sg14
g5
sg15
g5
sg16
g5
sg17
F0.0
sg18
I103750
sg19
g5
sg20
F0.0014311189650867407
sg21
g5
sg22
F0.0
sg23
F0.15831260784688922
sg24
g5
sg25
F8.578451971971647e-06
sg26
F0.0
ssS'HICKERSON GARY J'
p124
(dp125
g3
I1320
sg4
g5
sg6
I98849
sg7
I00
sg8
F0.25
sg9
F1.0
sg10
S'gary.hickerson@enron.com'
p126
sg12
F0.013453286933619205
sg13
g5
sg14
I900
sg15
g5
sg16
I27
sg17
F0.00026064873261573255
sg18
g5
sg19
I1700000
sg20
F0.015747696449583168
sg21
I40
sg22
F0.0016420361247947454
sg23
F0.18512440519332996
sg24
I211788
sg25
F0.12066612838812626
sg26
F0.0
ssS'CLINE KENNETH W'
p127
(dp128
g3
g5
sg4
g5
sg6
g5
sg7
I00
sg8
F0.9375
sg9
F1.0
sg10
g5
sg12
F0.0
sg13
I-472568
sg14
g5
sg15
g5
sg16
g5
sg17
F0.0
sg18
g5
sg19
g5
sg20
F0.007582272300657215
sg21
g5
sg22
F0.0
sg23
F0.1985571706130797
sg24
g5
sg25
F0.0
sg26
F0.0
ssS'LEWIS RICHARD'
p129
(dp130
g3
I952
sg4
g5
sg6
g5
sg7
I00
sg8
F0.625
sg9
F1.0
sg10
S'richard.lewis@enron.com'
p131
sg12
F0.0
sg13
g5
sg14
I739
sg15
g5
sg16
I26
sg17
F0.0
sg18
g5
sg19
g5
sg20
F0.029034905599474876
sg21
I10
sg22
F0.0
sg23
F0.15831260784688922
sg24
g5
sg25
F0.0
sg26
F0.02764334755333019
ssS'HAYES ROBERT E'
p132
(dp133
g3
I504
sg4
I7961
sg6
g5
sg7
I00
sg8
F0.5
sg9
F1.0
sg10
S'robert.hayes@enron.com'
p134
sg12
F0.0
sg13
g5
sg14
I50
sg15
g5
sg16
I12
sg17
F0.0
sg18
g5
sg19
g5
sg20
F0.006345667112309749
sg21
I16
sg22
F0.0
sg23
F0.16751647442152004
sg24
g5
sg25
F0.00046143956857342083
sg26
F0.0
ssS'MCCARTY DANNY J'
p135
(dp136
g3
I1433
sg4
g5
sg6
g5
sg7
I00
sg8
F0.5625
sg9
F1.0
sg10
S'danny.mccarty@enron.com'
p137
sg12
F0.0
sg13
g5
sg14
I508
sg15
g5
sg16
I215
sg17
F0.0
sg18
g5
sg19
g5
sg20
F0.026063612723557363
sg21
I25
sg22
F0.003284072249589491
sg23
F0.16406014650035705
sg24
g5
sg25
F0.0
sg26
F0.021594409996676858
ssS'KOPPER MICHAEL J'
p138
(dp139
g3
g5
sg4
g5
sg6
I118134
sg7
I01
sg8
F0.5625
sg9
F1.0
sg10
S'michael.kopper@enron.com'
p140
sg12
F0.11712734047312627
sg13
g5
sg14
g5
sg15
g5
sg16
g5
sg17
F0.12217936267884427
sg18
g5
sg19
I800000
sg20
F0.03340213423774504
sg21
g5
sg22
F0.0
sg23
F0.21818727994493411
sg24
I224305
sg25
F0.15375205839375441
sg26
F0.0
ssS'LEFF DANIEL P'
p141
(dp142
g3
I2822
sg4
g5
sg6
g5
sg7
I00
sg8
F0.3125
sg9
F1.0
sg10
S'dan.leff@enron.com'
p143
sg12
F0.2696369246986746
sg13
g5
sg14
I2672
sg15
g5
sg16
I63
sg17
F0.0004150723360817683
sg18
g5
sg19
I1000000
sg20
F0.013132714643420999
sg21
I67
sg22
F0.022988505747126436
sg23
F0.1802271200476745
sg24
I273746
sg25
F0.15442535094852755
sg26
F0.0
ssS'LAVORATO JOHN J'
p144
(dp145
g3
I7259
sg4
g5
sg6
I49537
sg7
I00
sg8
F0.1875
sg9
F1.0
sg10
S'john.lavorato@enron.com'
p146
sg12
F0.39557013072172337
sg13
g5
sg14
I3962
sg15
g5
sg16
I2585
sg17
F0.000208949810444017
sg18
g5
sg19
I8000000
sg20
F0.16914022865901007
sg21
I528
sg22
F0.6748768472906403
sg23
F0.21959243510221885
sg24
I339288
sg25
F0.6043030790266702
sg26
F0.13518125035428646
ssS'BERBERIAN DAVID'
p147
(dp148
g3
g5
sg4
g5
sg6
I11892
sg7
I00
sg8
F0.6875
sg9
F1.0
sg10
S'david.berberian@enron.com'
p149
sg12
F0.0
sg13
g5
sg14
g5
sg15
g5
sg16
g5
sg17
F0.0
sg18
g5
sg19
g5
sg20
F0.08236598729438477
sg21
g5
sg22
F0.0
sg23
F0.21114770607827923
sg24
I216582
sg25
F0.013242927269217906
sg26
F0.05279830400144783
ssS'DETMERING TIMOTHY J'
p150
(dp151
g3
g5
sg4
I875307
sg6
I52255
sg7
I00
sg8
F0.3125
sg9
F0.7787797919521423
sg10
S'timothy.detmering@enron.com'
p152
sg12
F0.08078171831569504
sg13
I-315068
sg14
g5
sg15
g5
sg16
g5
sg17
F0.00014876903385350438
sg18
g5
sg19
I425000
sg20
F0.06724918668866245
sg21
g5
sg22
F0.0
sg23
F0.17746385693177866
sg24
I210500
sg25
F0.0698206581875238
sg26
F0.0659123962038173
ssS'WAKEHAM JOHN'
p153
(dp154
g3
g5
sg4
g5
sg6
I103773
sg7
I00
sg8
F0.9375
sg9
F1.0
sg10
g5
sg12
F0.0
sg13
g5
sg14
g5
sg15
g5
sg16
g5
sg17
F0.0
sg18
I109298
sg19
g5
sg20
F0.0014311189650867407
sg21
g5
sg22
F0.0
sg23
F0.15831260784688922
sg24
g5
sg25
F0.01235013067648629
sg26
F0.0
ssS'POWERS WILLIAM'
p155
(dp156
g3
I653
sg4
g5
sg6
g5
sg7
I00
sg8
F0.625
sg9
F0.9950062578722778
sg10
S'ken.powers@enron.com'
p157
sg12
F0.0
sg13
g5
sg14
I12
sg15
g5
sg16
I26
sg17
F0.0
sg18
I17500
sg19
g5
sg20
F0.0014311189650867407
sg21
I0
sg22
F0.0
sg23
F0.15831260784688922
sg24
g5
sg25
F0.0
sg26
F0.0
ssS'GOLD JOSEPH'
p158
(dp159
g3
g5
sg4
g5
sg6
g5
sg7
I00
sg8
F0.5625
sg9
F1.0
sg10
S'joe.gold@enron.com'
p160
sg12
F0.05923795738124325
sg13
g5
sg14
g5
sg15
g5
sg16
g5
sg17
F0.11030288163599085
sg18
g5
sg19
I750000
sg20
F0.029915589200016086
sg21
g5
sg22
F0.0
sg23
F0.18512440519332996
sg24
I272880
sg25
F0.12444395111905326
sg26
F0.01418819774931236
ssS'BANNANTINE JAMES M'
p161
(dp162
g3
I566
sg4
g5
sg6
I56301
sg7
I00
sg8
F0.1875
sg9
F0.9985435394388632
sg10
S'james.bannantine@enron.com'
p163
sg12
F0.0
sg13
I-560222
sg14
I465
sg15
g5
sg16
I29
sg17
F0.11639298774129697
sg18
g5
sg19
g5
sg20
F0.17161808036226495
sg21
I39
sg22
F0.0
sg23
F0.26514451756684043
sg24
I477
sg25
F0.05310508082003045
sg26
F0.13151363788361098
ssS'DUNCAN JOHN H'
p164
(dp165
g3
g5
sg4
g5
sg6
g5
sg7
I00
sg8
F0.8125
sg9
F0.9928660826746826
sg10
g5
sg12
F0.0
sg13
g5
sg14
g5
sg15
g5
sg16
g5
sg17
F0.0
sg18
I102492
sg19
g5
sg20
F0.013496945179474418
sg21
g5
sg22
F0.0
sg23
F0.15831260784688922
sg24
g5
sg25
F0.004491631082513695
sg26
F0.012083118594565753
ssS'SHAPIRO RICHARD S'
p166
(dp167
g3
I15149
sg4
g5
sg6
I137767
sg7
I00
sg8
F0.25
sg9
F1.0
sg10
S'richard.shapiro@enron.com'
p168
sg12
F0.0
sg13
g5
sg14
I4527
sg15
g5
sg16
I1215
sg17
F9.491598992463401e-05
sg18
g5
sg19
I650000
sg20
F0.033466041734224204
sg21
I74
sg22
F0.10673234811165845
sg23
F0.18135989988550633
sg24
I269076
sg25
F0.06129814004090994
sg26
F0.019756735863255045
ssS'SHERRIFF JOHN R'
p169
(dp170
g3
I3187
sg4
g5
sg6
g5
sg7
I00
sg8
F0.25
sg9
F1.0
sg10
S'john.sherriff@enron.com'
p171
sg12
F0.10775028889691327
sg13
g5
sg14
I2103
sg15
g5
sg16
I92
sg17
F0.24936463505609668
sg18
g5
sg19
I1500000
sg20
F0.10298795296628965
sg21
I28
sg22
F0.03776683087027915
sg23
F0.23693273174513985
sg24
I428780
sg25
F0.25128998471528524
sg26
F0.05966177538992313
ssS'SHELBY REX'
p172
(dp173
g3
I225
sg4
g5
sg6
I22884
sg7
I01
sg8
F0.1875
sg9
F0.9988109186602161
sg10
S'rex.shelby@enron.com'
p174
sg12
F0.0
sg13
g5
sg14
I91
sg15
g5
sg16
I39
sg17
F0.21182071621586507
sg18
g5
sg19
I200000
sg20
F0.08236598729438477
sg21
I13
sg22
F0.022988505747126436
sg23
F0.21114770607827923
sg24
I211844
sg25
F0.11615021101252976
sg26
F0.05279830400144783
ssS'LEMAISTRE CHARLES'
p175
(dp176
g3
g5
sg4
g5
sg6
g5
sg7
I00
sg8
F0.8125
sg9
F0.9928660826746826
sg10
g5
sg12
F0.0
sg13
g5
sg14
g5
sg15
g5
sg16
g5
sg17
F0.0
sg18
I112492
sg19
g5
sg20
F0.014831829646307871
sg21
g5
sg22
F0.0
sg23
F0.15831260784688922
sg24
g5
sg25
F0.005071256215755023
sg26
F0.013419916177773016
ssS'DEFFNER JOSEPH M'
p177
(dp178
g3
I714
sg4
g5
sg6
I41626
sg7
I00
sg8
F0.1875
sg9
F1.0
sg10
S'joseph.deffner@enron.com'
p179
sg12
F0.06517409415804382
sg13
g5
sg14
I552
sg15
g5
sg16
I74
sg17
F0.003440267078786061
sg18
g5
sg19
I600000
sg20
F0.006598603181411896
sg21
I115
sg22
F0.006568144499178982
sg23
F0.16693385504259656
sg24
I206121
sg25
F0.07005633376669973
sg26
F0.0005648431336553159
ssS'KISHKILL JOSEPH G'
p180
(dp181
g3
g5
sg4
g5
sg6
I116335
sg7
I00
sg8
F0.625
sg9
F0.9854348236752458
sg10
S'joe.kishkill@enron.com'
p182
sg12
F0.0
sg13
g5
sg14
g5
sg15
g5
sg16
g5
sg17
F0.06265222740901831
sg18
g5
sg19
g5
sg20
F0.0350027103075132
sg21
g5
sg22
F0.0
sg23
F0.22118480650228756
sg24
I174246
sg25
F0.04085754379212788
sg26
F0.0
ssS'WHALLEY LAWRENCE G'
p183
(dp184
g3
I6019
sg4
g5
sg6
I57838
sg7
I00
sg8
F0.1875
sg9
F1.0
sg10
S'greg.whalley@enron.com'
p185
sg12
F0.1570996732248436
sg13
g5
sg14
I3920
sg15
g5
sg16
I556
sg17
F0.040527916004330325
sg18
g5
sg19
I3000000
sg20
F0.19874062959172847
sg21
I186
sg22
F0.03940886699507389
sg23
F0.32827681307382084
sg24
I510364
sg25
F0.2711239452996169
sg26
F0.10670718230320264
ssS'MCCONNELL MICHAEL S'
p186
(dp187
g3
I3329
sg4
g5
sg6
I81364
sg7
I00
sg8
F0.1875
sg9
F1.0
sg10
S'mike.mcconnell@enron.com'
p188
sg12
F0.10775028889691327
sg13
g5
sg14
I2189
sg15
g5
sg16
I2742
sg17
F7.270160930397498e-05
sg18
g5
sg19
I1100000
sg20
F0.10208880142999596
sg21
I92
sg22
F0.3185550082101806
sg23
F0.24816844161442644
sg24
I365038
sg25
F0.1218003388488529
sg26
F0.05275325436493924
ssS'PIRO JIM'
p189
(dp190
g3
I58
sg4
g5
sg6
g5
sg7
I00
sg8
F0.625
sg9
F1.0
sg10
S'jim.piro@enron.com'
p191
sg12
F0.0
sg13
g5
sg14
I3
sg15
g5
sg16
I16
sg17
F0.0
sg18
g5
sg19
g5
sg20
F0.0029664568083830277
sg21
I0
sg22
F0.0016420361247947454
sg23
F0.1611879575704778
sg24
g5
sg25
F0.0
sg26
F0.0
ssS'DELAINEY DAVID W'
p192
(dp193
g3
I3093
sg4
g5
sg6
I86174
sg7
I01
sg8
F0.1875
sg9
F1.0
sg10
S'david.delainey@enron.com'
p194
sg12
F0.2516757575745797
sg13
g5
sg14
I2097
sg15
g5
sg16
I3069
sg17
F0.00022362476491463417
sg18
g5
sg19
I3000000
sg20
F0.11873857053049097
sg21
I66
sg22
F1.0
sg23
F0.23873949005699396
sg24
I365163
sg25
F0.2752047960502025
sg26
F0.07446883683268682
ssS'SULLIVAN-SHAKLOVITZ COLLEEN'
p195
(dp196
g3
g5
sg4
I181993
sg6
g5
sg7
I00
sg8
F0.625
sg9
F1.0
sg10
g5
sg12
F0.10775028889691327
sg13
g5
sg14
g5
sg15
g5
sg16
g5
sg17
F2.1810482791192495e-05
sg18
g5
sg19
I100000
sg20
F0.045649491497235795
sg21
g5
sg22
F0.0
sg23
F0.15831260784688922
sg24
I162779
sg25
F0.05792518546555201
sg26
F0.044281744977193054
ssS'WROBEL BRUCE'
p197
(dp198
g3
g5
sg4
g5
sg6
g5
sg7
I00
sg8
F1.0
sg9
F1.0
sg10
g5
sg12
F0.0
sg13
g5
sg14
g5
sg15
g5
sg16
g5
sg17
F0.0
sg18
g5
sg19
g5
sg20
F0.0059468375964458735
sg21
g5
sg22
F0.0
sg23
F0.15831260784688922
sg24
g5
sg25
F0.0
sg26
F0.0045221904238384215
ssS'LINDHOLM TOD A'
p199
(dp200
g3
g5
sg4
I204075
sg6
I57727
sg7
I00
sg8
F0.4375
sg9
F1.0
sg10
S'tod.lindholm@enron.com'
p201
sg12
F0.034010736509301254
sg13
g5
sg14
g5
sg15
g5
sg16
g5
sg17
F0.00035408376383232263
sg18
g5
sg19
I200000
sg20
F0.1008855943187826
sg21
g5
sg22
F0.0
sg23
F0.18960732244058984
sg24
I236457
sg25
F0.05076872783296131
sg26
F0.08286276073533488
ssS'MEYER JEROME J'
p202
(dp203
g3
g5
sg4
g5
sg6
I2151
sg7
I00
sg8
F0.875
sg9
F0.989057712249735
sg10
g5
sg12
F0.0
sg13
g5
sg14
g5
sg15
g5
sg16
g5
sg17
F0.0
sg18
I38346
sg19
g5
sg20
F0.0014311189650867407
sg21
g5
sg22
F0.0
sg23
F0.15831260784688922
sg24
g5
sg25
F0.00012467736616020953
sg26
F0.0
ssS'BUTTS ROBERT H'
p204
(dp205
g3
g5
sg4
g5
sg6
I9410
sg7
I00
sg8
F0.5
sg9
F0.9785982480240476
sg10
S'bob.butts@enron.com'
p206
sg12
F0.034010736509301254
sg13
g5
sg14
g5
sg15
g5
sg16
g5
sg17
F0.020283210465369732
sg18
g5
sg19
I750000
sg20
F0.014985707473025859
sg21
g5
sg22
F0.0
sg23
F0.18369736761805747
sg24
I261516
sg25
F0.07370408861772737
sg26
F0.0
ssS'OLSON CINDY K'
p207
(dp208
g3
I1184
sg4
I77716
sg6
I63791
sg7
I00
sg8
F0.125
sg9
F1.0
sg10
S'cindy.olson@enron.com'
p209
sg12
F0.019434706576743576
sg13
g5
sg14
I856
sg15
g5
sg16
I52
sg17
F0.00013086289674715498
sg18
g5
sg19
I750000
sg20
F0.08603838013548584
sg21
I20
sg22
F0.024630541871921183
sg23
F0.21725709482697209
sg24
I329078
sg25
F0.0766007652211009
sg26
F0.053209081278645196
ssS'MCDONALD REBECCA'
p210
(dp211
g3
I894
sg4
g5
sg6
g5
sg7
I00
sg8
F0.5625
sg9
F1.0
sg10
S'rebecca.mcdonald@enron.com'
p212
sg12
F0.0
sg13
g5
sg14
I720
sg15
g5
sg16
I13
sg17
F0.0
sg18
g5
sg19
g5
sg20
F0.05632749615654344
sg21
I54
sg22
F0.0016420361247947454
sg23
F0.2150892766183203
sg24
g5
sg25
F0.0
sg26
F0.024614815856847987
ssS'CUMBERLAND MICHAEL S'
p213
(dp214
g3
g5
sg4
g5
sg6
I22344
sg7
I00
sg8
F0.625
sg9
F1.0
sg10
g5
sg12
F0.05344544308604483
sg13
g5
sg14
g5
sg15
g5
sg16
g5
sg17
F9.599305080321142e-05
sg18
g5
sg19
I325000
sg20
F0.008180192006162124
sg21
g5
sg22
F0.0
sg23
F0.1709521356145835
sg24
I184899
sg25
F0.046831160415313
sg26
F0.0
ssS'GAHN ROBERT S'
p215
(dp216
g3
g5
sg4
I73122
sg6
I50080
sg7
I00
sg8
F0.5
sg9
F0.9997026583258808
sg10
g5
sg12
F0.0
sg13
g5
sg14
g5
sg15
g5
sg16
g5
sg17
F0.0103057223840581
sg18
g5
sg19
I509870
sg20
F0.011772091911118792
sg21
g5
sg22
F0.0
sg23
F0.17261945429626022
sg24
I192008
sg25
F0.05220017006201409
sg26
F0.0027054809480991783
ssS'MCCLELLAN GEORGE'
p217
(dp218
g3
I1744
sg4
g5
sg6
I228763
sg7
I00
sg8
F0.1875
sg9
F0.9643304133734126
sg10
S'george.mcclellan@enron.com'
p219
sg12
F0.0
sg13
g5
sg14
I1469
sg15
g5
sg16
I49
sg17
F0.006945292442896588
sg18
g5
sg19
I900000
sg20
F0.032195681443622635
sg21
I52
sg22
F0.0
sg23
F0.18512440519332996
sg24
I263413
sg25
F0.07643881795887328
sg26
F0.01647155775272391
ssS'HERMANN ROBERT J'
p220
(dp221
g3
g5
sg4
g5
sg6
I48357
sg7
I00
sg8
F0.4375
sg9
F0.9201001259564443
sg10
S'robert.hermann@enron.com'
p222
sg12
F0.029152059865115362
sg13
g5
sg14
g5
sg15
g5
sg16
g5
sg17
F0.05606653866695675
sg18
g5
sg19
I700000
sg20
F0.023116565098970445
sg21
g5
sg22
F0.0
sg23
F0.18752758096433872
sg24
I262663
sg25
F0.0752041005000426
sg26
F0.006094377233304852
ssS'SCRIMSHAW MATTHEW'
p223
(dp224
g3
g5
sg4
g5
sg6
g5
sg7
I00
sg8
F0.9375
sg9
F1.0
sg10
S'matthew.scrimshaw@enron.com'
p225
sg12
F0.0
sg13
g5
sg14
g5
sg15
g5
sg16
g5
sg17
F0.0
sg18
g5
sg19
g5
sg20
F0.026083930698568007
sg21
g5
sg22
F0.0
sg23
F0.15831260784688922
sg24
g5
sg25
F0.0
sg26
F0.02468814340371911
ssS'GATHMANN WILLIAM D'
p226
(dp227
g3
g5
sg4
g5
sg6
g5
sg7
I00
sg8
F0.875
sg9
F1.0
sg10
g5
sg12
F0.0
sg13
I-72419
sg14
g5
sg15
g5
sg16
g5
sg17
F0.0
sg18
g5
sg19
g5
sg20
F0.064571336004552
sg21
g5
sg22
F0.0
sg23
F0.1743605045696567
sg24
g5
sg25
F0.0
sg26
F0.057003261775701954
ssS'HAEDICKE MARK E'
p228
(dp229
g3
I4009
sg4
I2157527
sg6
I76169
sg7
I00
sg8
F0.0
sg9
F0.7333387360867211
sg10
S'mark.haedicke@enron.com'
p230
sg12
F0.19111040973414486
sg13
I-329825
sg14
I1847
sg15
g5
sg16
I1941
sg17
F0.007052325367705218
sg18
g5
sg19
I1150000
sg20
F0.02749700366668044
sg21
I180
sg22
F0.10016420361247948
sg23
F0.1901739554974834
sg24
I374125
sg25
F0.22368110648119435
sg26
F0.019786411417463085
ssS'BOWEN JR RAYMOND M'
p231
(dp232
g3
I1858
sg4
g5
sg6
I65907
sg7
I01
sg8
F0.1875
sg9
F0.9997622978747204
sg10
S'raymond.bowen@enron.com'
p233
sg12
F0.18935098574775228
sg13
g5
sg14
I1593
sg15
g5
sg16
I27
sg17
F0.00021823946052174713
sg18
g5
sg19
I1350000
sg20
F0.009612025021488856
sg21
I140
sg22
F0.024630541871921183
sg23
F0.1736336435854974
sg24
I278601
sg25
F0.15473608798245822
sg26
F0.0
ssS'GILLIS JOHN'
p234
(dp235
g3
g5
sg4
g5
sg6
g5
sg7
I00
sg8
F0.9375
sg9
F1.0
sg10
g5
sg12
F0.0
sg13
g5
sg14
g5
sg15
g5
sg16
g5
sg17
F0.0
sg18
g5
sg19
g5
sg20
F0.004210754265224939
sg21
g5
sg22
F0.0
sg23
F0.16292238233398357
sg24
g5
sg25
F0.0
sg26
F0.0003186302934297998
ssS'FITZGERALD JAY L'
p236
(dp237
g3
I936
sg4
g5
sg6
I23870
sg7
I00
sg8
F0.1875
sg9
F1.0
sg10
S'jay.fitzgerald@enron.com'
p238
sg12
F0.10813781694605352
sg13
g5
sg14
I723
sg15
g5
sg16
I16
sg17
F0.03842603169978651
sg18
g5
sg19
I350000
sg20
F0.05405129873242775
sg21
I1
sg22
F0.013136288998357963
sg23
F0.21646969248638
sg24
I199157
sg25
F0.08200866771424249
sg26
F0.021597205284367867
ssS'MORAN MICHAEL P'
p239
(dp240
g3
I672
sg4
g5
sg6
g5
sg7
I00
sg8
F0.5625
sg9
F1.0
sg10
S'michael.moran@enron.com'
p241
sg12
F0.0
sg13
g5
sg14
I127
sg15
g5
sg16
I19
sg17
F0.0
sg18
g5
sg19
g5
sg20
F0.008608654606985611
sg21
I0
sg22
F0.0
sg23
F0.16813550371259536
sg24
g5
sg25
F0.0
sg26
F0.0019352166724999338
ssS'REDMOND BRIAN L'
p242
(dp243
g3
I1671
sg4
g5
sg6
I14689
sg7
I00
sg8
F0.375
sg9
F1.0
sg10
S'brian.redmond@enron.com'
p244
sg12
F0.0
sg13
g5
sg14
I1063
sg15
g5
sg16
I221
sg17
F0.0
sg18
g5
sg19
g5
sg20
F0.25752601650163615
sg21
I204
sg22
F0.08045977011494253
sg23
F0.18148882379815073
sg24
I96840
sg25
F0.006464501148527202
sg26
F0.24406888706985724
ssS'BAZELIDES PHILIP J'
p245
(dp246
g3
g5
sg4
I684694
sg6
g5
sg7
I00
sg8
F0.6875
sg9
F1.0
sg10
g5
sg12
F0.018220037415697103
sg13
g5
sg14
g5
sg15
g5
sg16
g5
sg17
F0.00011766890098458174
sg18
g5
sg19
g5
sg20
F0.053350393508218734
sg21
g5
sg22
F0.0
sg23
F0.15831260784688922
sg24
I80818
sg25
F0.04985564436056625
sg26
F0.051993683689925366
ssS'BELDEN TIMOTHY N'
p247
(dp248
g3
I7991
sg4
I2144013
sg6
I17355
sg7
I01
sg8
F0.125
sg9
F0.33385363370359317
sg10
S'tim.belden@enron.com'
p249
sg12
F0.0
sg13
g5
sg14
I5521
sg15
g5
sg16
I484
sg17
F0.028366821624312817
sg18
g5
sg19
I5249999
sg20
F0.03748108132003352
sg21
I228
sg22
F0.17733990147783252
sg23
F0.16789035984663828
sg24
I213999
sg25
F0.31888830217944847
sg26
F0.030980108472764018
ssS'DURAN WILLIAM D'
p250
(dp251
g3
I904
sg4
g5
sg6
I25785
sg7
I00
sg8
F0.1875
sg9
F1.0
sg10
S'w.duran@enron.com'
p252
sg12
F0.21479587533335381
sg13
g5
sg14
I599
sg15
g5
sg16
I12
sg17
F0.0002111039322011718
sg18
g5
sg19
I750000
sg20
F0.05468985438795395
sg21
I106
sg22
F0.0049261083743842365
sg23
F0.16980336945472174
sg24
I210692
sg25
F0.12133078452841409
sg26
F0.04719059935648577
ssS'THORN TERENCE H'
p253
(dp254
g3
I266
sg4
I16586
sg6
I46145
sg7
I00
sg8
F0.1875
sg9
F1.0
sg10
S'terence.thorn@enron.com'
p255
sg12
F0.03886941315348715
sg13
g5
sg14
I73
sg15
g5
sg16
I41
sg17
F0.057438175695825086
sg18
g5
sg19
g5
sg20
F0.15780150032990745
sg21
I0
sg22
F0.0
sg23
F0.18051839934488903
sg24
I222093
sg25
F0.052830106656820766
sg26
F0.14472036461992668
ssS'FASTOW ANDREW S'
p256
(dp257
g3
g5
sg4
g5
sg6
I55921
sg7
I01
sg8
F0.5
sg9
F0.6044799288662835
sg10
S'andrew.fastow@enron.com'
p258
sg12
F0.3373971952608857
sg13
g5
sg14
g5
sg15
g5
sg16
g5
sg17
F0.037355702451700216
sg18
g5
sg19
I1300000
sg20
F0.059672042567001524
sg21
g5
sg22
F0.0
sg23
F0.26738503403080705
sg24
I440698
sg25
F0.1405059431863037
sg26
F0.0
ssS'FOY JOE'
p259
(dp260
g3
I57
sg4
I181755
sg6
g5
sg7
I00
sg8
F0.5
sg9
F1.0
sg10
S'tracy.foy@enron.com'
p261
sg12
F0.0
sg13
g5
sg14
I2
sg15
g5
sg16
I13
sg17
F0.0
sg18
g5
sg19
g5
sg20
F0.012577897606948255
sg21
I0
sg22
F0.0
sg23
F0.15831260784688922
sg24
g5
sg25
F0.010534976609227748
sg26
F0.011162753870628365
ssS'CALGER CHRISTOPHER F'
p262
(dp263
g3
I2598
sg4
g5
sg6
I35818
sg7
I01
sg8
F0.1875
sg9
F0.9250938680841665
sg10
S'christopher.calger@enron.com'
p264
sg12
F0.0729392311707817
sg13
g5
sg14
I2188
sg15
g5
sg16
I144
sg17
F6.543144837357749e-05
sg18
g5
sg19
I1250000
sg20
F0.0055215557648732524
sg21
I199
sg22
F0.041050903119868636
sg23
F0.1659730953239461
sg24
I240189
sg25
F0.09501777420471084
sg26
F0.0
ssS'RICE KENNETH D'
p265
(dp266
g3
I905
sg4
g5
sg6
I46950
sg7
I01
sg8
F0.125
sg9
F0.0
sg10
S'ken.rice@enron.com'
p267
sg12
F0.31426134316366705
sg13
g5
sg14
I864
sg15
g5
sg16
I18
sg17
F0.023539030868699413
sg18
g5
sg19
I1750000
sg20
F0.733090454553672
sg21
I42
sg22
F0.006568144499178982
sg23
F0.3253705240425773
sg24
I420636
sg25
F0.029273967354353246
sg26
F0.6433769038509444
ssS'KAMINSKI WINCENTY J'
p268
(dp269
g3
I4607
sg4
g5
sg6
I83585
sg7
I00
sg8
F0.1875
sg9
F1.0
sg10
S'vince.kaminski@enron.com'
p270
sg12
F0.06286466797552938
sg13
g5
sg14
I583
sg15
g5
sg16
I14368
sg17
F0.0006285996552597392
sg18
g5
sg19
I400000
sg20
F0.03311018506007613
sg21
I41
sg22
F0.28078817733990147
sg23
F0.1659730953239461
sg24
I275101
sg25
F0.06299487669344728
sg26
F0.027628168491101106
ssS'COX DAVID'
p271
(dp272
g3
I102
sg4
g5
sg6
I27861
sg7
I00
sg8
F0.1875
sg9
F0.9882290364132261
sg10
S'chip.cox@enron.com'
p273
sg12
F0.0
sg13
g5
sg14
I71
sg15
g5
sg16
I33
sg17
F6.65085092521549e-05
sg18
g5
sg19
I800000
sg20
F0.01751779453769093
sg21
I0
sg22
F0.006568144499178982
sg23
F0.1812941310625543
sg24
I314288
sg25
F0.06383950643760654
sg26
F0.0038208007368118325
ssS'OVERDYKE JR JERE C'
p274
(dp275
g3
g5
sg4
g5
sg6
I18834
sg7
I00
sg8
F0.5625
sg9
F1.0
sg10
S'jere.overdyke@enron.com'
p276
sg12
F0.0263993280255854
sg13
g5
sg14
g5
sg15
g5
sg16
g5
sg17
F2.369533932870296e-05
sg18
g5
sg19
g5
sg20
F0.238612448485738
sg21
g5
sg22
F0.0
sg23
F0.2823747334903843
sg24
I94941
sg25
F0.014478282315695147
sg26
F0.17118140298999573
ssS'PEREIRA PAULO V. FERRAZ'
p277
(dp278
g3
g5
sg4
g5
sg6
I27942
sg7
I00
sg8
F0.875
sg9
F0.9711076348324642
sg10
g5
sg12
F0.0
sg13
g5
sg14
g5
sg15
g5
sg16
g5
sg17
F0.0
sg18
I101250
sg19
g5
sg20
F0.0014311189650867407
sg21
g5
sg22
F0.0
sg23
F0.15831260784688922
sg24
g5
sg25
F0.0016195885473029173
sg26
F0.0
ssS'STABLER FRANK'
p279
(dp280
g3
g5
sg4
g5
sg6
I16514
sg7
I00
sg8
F0.625
sg9
F1.0
sg10
S'frank.stabler@enron.com'
p281
sg12
F0.0
sg13
g5
sg14
g5
sg15
g5
sg16
g5
sg17
F0.047938768011992
sg18
g5
sg19
I500000
sg20
F0.018040381942876826
sg21
g5
sg22
F0.0
sg23
F0.18941810030949033
sg24
I239502
sg25
F0.06445935755509481
sg26
F0.0
ssS'BLAKE JR. NORMAN P'
p282
(dp283
g3
g5
sg4
g5
sg6
I1279
sg7
I00
sg8
F0.875
sg9
F0.9675309740422431
sg10
g5
sg12
F0.0
sg13
g5
sg14
g5
sg15
g5
sg16
g5
sg17
F0.0
sg18
I113784
sg19
g5
sg20
F0.0014311189650867407
sg21
g5
sg22
F0.0
sg23
F0.15831260784688922
sg24
g5
sg25
F7.413405454156578e-05
sg26
F0.0
ssS'SHERRICK JEFFREY B'
p284
(dp285
g3
I613
sg4
g5
sg6
g5
sg7
I00
sg8
F0.5625
sg9
F1.0
sg10
S'jeffrey.sherrick@enron.com'
p286
sg12
F0.0
sg13
g5
sg14
I583
sg15
g5
sg16
I25
sg17
F0.0
sg18
g5
sg19
g5
sg20
F0.06090721965486901
sg21
I39
sg22
F0.029556650246305417
sg23
F0.18299105179300887
sg24
g5
sg25
F0.0
sg26
F0.04636501438728074
ssS'PRENTICE JAMES'
p287
(dp288
g3
g5
sg4
I564348
sg6
g5
sg7
I00
sg8
F0.75
sg9
F1.0
sg10
S'james.prentice@enron.com'
p289
sg12
F0.0
sg13
g5
sg14
g5
sg15
g5
sg16
g5
sg17
F0.0
sg18
g5
sg19
g5
sg20
F0.03697264509233108
sg21
g5
sg22
F0.0
sg23
F0.17100495734022614
sg24
g5
sg25
F0.03271102846944767
sg26
F0.028805472159194625
ssS'GRAY RODNEY'
p290
(dp291
g3
g5
sg4
I93585
sg6
g5
sg7
I00
sg8
F0.8125
sg9
F1.0
sg10
g5
sg12
F0.0710581459212187
sg13
g5
sg14
g5
sg15
g5
sg16
g5
sg17
F0.09166232364306148
sg18
g5
sg19
g5
sg20
F0.0014311189650867407
sg21
g5
sg22
F0.0
sg23
F0.15831260784688922
sg24
I6615
sg25
F0.06646317960322341
sg26
F0.0
ssS'PICKERING MARK R'
p292
(dp293
g3
I898
sg4
g5
sg6
I31653
sg7
I00
sg8
F0.3125
sg9
F1.0
sg10
S'mark.pickering@enron.com'
p294
sg12
F0.0
sg13
g5
sg14
I728
sg15
I400000
sg16
I67
sg17
F0.0
sg18
g5
sg19
I300000
sg20
F0.002365810729234518
sg21
I7
sg22
F0.0
sg23
F0.15831260784688922
sg24
I655037
sg25
F0.08037603760144164
sg26
F0.0009360313363451367
ssS'NOLES JAMES L'
p295
(dp296
g3
g5
sg4
I774401
sg6
g5
sg7
I00
sg8
F0.8125
sg9
F1.0
sg10
g5
sg12
F0.0
sg13
I-94556
sg14
g5
sg15
g5
sg16
g5
sg17
F0.0
sg18
g5
sg19
g5
sg20
F0.013398114134893892
sg21
g5
sg22
F0.0
sg23
F0.18647169351193602
sg24
g5
sg25
F0.044886228280721724
sg26
F0.0
ssS'KEAN STEVEN J'
p297
(dp298
g3
I12754
sg4
g5
sg6
I41953
sg7
I00
sg8
F0.1875
sg9
F1.0
sg10
S'steven.kean@enron.com'
p299
sg12
F0.058304119730230725
sg13
g5
sg14
I3639
sg15
g5
sg16
I6759
sg17
F0.00016573274269109854
sg18
g5
sg19
I1000000
sg20
F0.20115882564311502
sg21
I140
sg22
F0.6354679802955665
sg23
F0.40944946024584655
sg24
I404338
sg25
F0.10129076720921511
sg26
F0.06572332424453124
ssS'FOWLER PEGGY'
p300
(dp301
g3
I517
sg4
g5
sg6
g5
sg7
I00
sg8
F0.5625
sg9
F1.0
sg10
S'kulvinder.fowler@enron.com'
p302
sg12
F0.0
sg13
g5
sg14
I10
sg15
g5
sg16
I36
sg17
F0.0
sg18
g5
sg19
g5
sg20
F0.06260406267971955
sg21
I0
sg22
F0.0
sg23
F0.19236225808075147
sg24
g5
sg25
F0.0
sg26
F0.04305321603699453
ssS'WASAFF GEORGE'
p303
(dp304
g3
I400
sg4
I831299
sg6
g5
sg7
I00
sg8
F0.125
sg9
F0.8335443070483673
sg10
S'george.wasaff@enron.com'
p305
sg12
F0.03886941315348715
sg13
g5
sg14
I337
sg15
g5
sg16
I30
sg17
F0.00019185146899660066
sg18
g5
sg19
I325000
sg20
F0.06817621864114487
sg21
I22
sg22
F0.011494252873563218
sg23
F0.18190714268868297
sg24
I259996
sg25
F0.059956133969916295
sg26
F0.054224030737243474
ssS'WHITE JR THOMAS E'
p306
(dp307
g3
g5
sg4
g5
sg6
I81353
sg7
I00
sg8
F0.5625
sg9
F1.0
sg10
S'thomas.white@enron.com'
p308
sg12
F0.0
sg13
g5
sg14
g5
sg15
g5
sg16
g5
sg17
F0.14613871655540853
sg18
g5
sg19
I450000
sg20
F0.4929613309013648
sg21
g5
sg22
F0.0
sg23
F1.0
sg24
I317543
sg25
F0.1121203093111561
sg26
F0.0421584314457644
ssS'CHRISTODOULOU DIOMEDES'
p309
(dp310
g3
g5
sg4
g5
sg6
g5
sg7
I00
sg8
F0.875
sg9
F1.0
sg10
S'diomedes.christodoulou@enron.com'
p311
sg12
F0.0
sg13
g5
sg14
g5
sg15
g5
sg16
g5
sg17
F0.0
sg18
g5
sg19
g5
sg20
F0.19869999364170718
sg21
g5
sg22
F0.0
sg23
F0.21610225021766927
sg24
g5
sg25
F0.0
sg26
F0.16664968908600072
ssS'ALLEN PHILLIP K'
p312
(dp313
g3
I2902
sg4
I2869717
sg6
I13868
sg7
I00
sg8
F0.0
sg9
F0.12080033420975886
sg10
S'phillip.allen@enron.com'
p314
sg12
F0.05923795738124325
sg13
I-126027
sg14
I1407
sg15
g5
sg16
I2195
sg17
F2.046415669297074e-05
sg18
g5
sg19
I4175000
sg20
F0.05756653560707269
sg21
I47
sg22
F0.10673234811165845
sg23
F0.1659730953239461
sg24
I201955
sg25
F0.2599295291763005
sg26
F0.05621586823715897
ssS'SHARP VICTORIA T'
p315
(dp316
g3
I3136
sg4
I187469
sg6
I116337
sg7
I00
sg8
F0.125
sg9
F1.0
sg10
S'vicki.sharp@enron.com'
p317
sg12
F0.08204516859024914
sg13
g5
sg14
I2477
sg15
g5
sg16
I136
sg17
F0.00032325289618304433
sg18
g5
sg19
I600000
sg20
F0.017469206664542474
sg21
I24
sg22
F0.009852216748768473
sg23
F0.17126353457944787
sg24
I248146
sg25
F0.09137853984314184
sg26
F0.009135812757849037
ssS'JAEDICKE ROBERT'
p318
(dp319
g3
g5
sg4
g5
sg6
g5
sg7
I00
sg8
F0.6875
sg9
F0.9928660826746826
sg10
g5
sg12
F0.0
sg13
I-44093
sg14
g5
sg15
g5
sg16
g5
sg17
F0.0
sg18
I108750
sg19
g5
sg20
F0.015444354924903498
sg21
g5
sg22
F0.0
sg23
F0.16099277855892608
sg24
g5
sg25
F0.004854360490896117
sg26
F0.014033319309223306
ssS'WINOKUR JR. HERBERT S'
p320
(dp321
g3
g5
sg4
g5
sg6
I1413
sg7
I00
sg8
F0.875
sg9
F0.9928660826746826
sg10
g5
sg12
F0.0
sg13
g5
sg14
g5
sg15
g5
sg16
g5
sg17
F0.0
sg18
I108579
sg19
g5
sg20
F0.0014311189650867407
sg21
g5
sg22
F0.0
sg23
F0.15831260784688922
sg24
g5
sg25
F0.004926349932444691
sg26
F0.0
ssS'BROWN MICHAEL'
p322
(dp323
g3
I1486
sg4
g5
sg6
I49288
sg7
I00
sg8
F0.625
sg9
F1.0
sg10
S'michael.brown@enron.com'
p324
sg12
F0.0
sg13
g5
sg14
I761
sg15
g5
sg16
I41
sg17
F0.0
sg18
g5
sg19
g5
sg20
F0.0014311189650867407
sg21
I13
sg22
F0.0016420361247947454
sg23
F0.15831260784688922
sg24
g5
sg25
F0.002856856356719855
sg26
F0.0
ssS'BADUM JAMES P'
p325
(dp326
g3
g5
sg4
I178980
sg6
I3486
sg7
I00
sg8
F0.8125
sg9
F1.0
sg10
g5
sg12
F0.0
sg13
g5
sg14
g5
sg15
g5
sg16
g5
sg17
F0.0
sg18
g5
sg19
g5
sg20
F0.009799041270708228
sg21
g5
sg22
F0.0
sg23
F0.15831260784688922
sg24
g5
sg25
F0.010576187956201206
sg26
F0.00837991496084777
ssS'HUGHES JAMES A'
p327
(dp328
g3
I719
sg4
g5
sg6
g5
sg7
I00
sg8
F0.5625
sg9
F1.0
sg10
S'james.hughes@enron.com'
p329
sg12
F0.0
sg13
g5
sg14
I589
sg15
g5
sg16
I34
sg17
F0.0
sg18
g5
sg19
g5
sg20
F0.03773064187891026
sg21
I35
sg22
F0.008210180623973728
sg23
F0.1804033950814646
sg24
g5
sg25
F0.0
sg26
F0.024538920545702565
ssS'REYNOLDS LAWRENCE'
p330
(dp331
g3
g5
sg4
I51365
sg6
I8409
sg7
I00
sg8
F0.375
sg9
F0.9429286613974602
sg10
g5
sg12
F0.030366729026161835
sg13
I-140264
sg14
g5
sg15
g5
sg16
g5
sg17
F0.027202788079790284
sg18
g5
sg19
I100000
sg20
F0.13846031359074218
sg21
g5
sg22
F0.0
sg23
F0.1705596501341757
sg24
I76399
sg25
F0.022864762443537266
sg26
F0.13523575846426114
ssS'DIMICHELE RICHARD G'
p332
(dp333
g3
g5
sg4
g5
sg6
I35812
sg7
I00
sg8
F0.5
sg9
F1.0
sg10
S'richard.dimichele@enron.com'
p334
sg12
F0.13504439081329195
sg13
g5
sg14
g5
sg15
g5
sg16
g5
sg17
F0.050445357941661266
sg18
g5
sg19
I1000000
sg20
F0.2713999477509965
sg21
g5
sg22
F0.0
sg23
F0.1659730953239461
sg24
I262788
sg25
F0.1372639838910583
sg26
F0.26625944092165965
ssS'BHATNAGAR SANJAY'
p335
(dp336
g3
I523
sg4
g5
sg6
g5
sg7
I00
sg8
F0.375
sg9
F1.0
sg10
S'sanjay.bhatnagar@enron.com'
p337
sg12
F0.0
sg13
I15456290
sg14
I463
sg15
g5
sg16
I29
sg17
F0.018560990120524458
sg18
I137864
sg19
g5
sS'total_stock_value'
p338
F0.0014311189650867407
sg21
I0
sg22
F0.0016420361247947454
sg23
F0.0
sg24
g5
sg25
F0.8958854150666598
sg26
F0.08465463765530748
ssS'CARTER REBECCA C'
p339
(dp340
g3
I312
sg4
g5
sg6
g5
sg7
I00
sg8
F0.25
sg9
F0.9544022833101148
sg10
S'rebecca.carter@enron.com'
p341
sg12
F0.014576029932557681
sg13
I-307301
sg14
I196
sg15
g5
sg16
I15
sg17
F7.270160930397498e-05
sg18
g5
sg19
I300000
sg20
F0.0014311189650867407
sg21
I29
sg22
F0.011494252873563218
sg23
F0.17699174376369323
sg24
I261809
sg25
F0.027680403975532866
sg26
F0.0
ssS'BUCHANAN HAROLD G'
p342
(dp343
g3
I1088
sg4
g5
sg6
I600
sg7
I00
sg8
F0.1875
sg9
F1.0
sg10
S'john.buchanan@enron.com'
p344
sg12
F0.05923795738124325
sg13
g5
sg14
I23
sg15
g5
sg16
I125
sg17
F0.00016357862093394372
sg18
g5
sg19
I500000
sg20
F0.03435873436152889
sg21
I0
sg22
F0.0
sg23
F0.16980336945472174
sg24
I248017
sg25
F0.06112941116462339
sg26
F0.0268303413787347
ssS'YEAP SOON'
p345
(dp346
g3
g5
sg4
g5
sg6
I55097
sg7
I00
sg8
F0.875
sg9
F1.0
sg10
g5
sg12
F0.0
sg13
g5
sg14
g5
sg15
g5
sg16
g5
sg17
F0.0
sg18
g5
sg19
g5
sg20
F0.007687432426910386
sg21
g5
sg22
F0.0
sg23
F0.15831260784688922
sg24
g5
sg25
F0.003193560596619742
sg26
F0.006265279822599342
ssS'MURRAY JULIA H'
p347
(dp348
g3
I2192
sg4
g5
sg6
I57580
sg7
I00
sg8
F0.1875
sg9
F1.0
sg10
S'julia.murray@enron.com'
p349
sg12
F0.024293383220929467
sg13
g5
sg14
I395
sg15
g5
sg16
I45
sg17
F4.442876124131805e-05
sg18
g5
sg19
I400000
sg20
F0.020822808530316803
sg21
I11
sg22
F0.003284072249589491
sg23
F0.170286119909329
sg24
I229284
sg25
F0.047076805546780676
sg26
F0.013016874696743789
ssS'GARLAND C KEVIN'
p350
(dp351
g3
I209
sg4
g5
sg6
I48405
sg7
I00
sg8
F0.1875
sg9
F1.0
sg10
S'kevin.garland@enron.com'
p352
sg12
F0.0729392311707817
sg13
g5
sg14
I178
sg15
g5
sg16
I44
sg17
F0.008187547533725805
sg18
g5
sg19
I850000
sg20
F0.03051740372501185
sg21
I10
sg22
F0.04433497536945813
sg23
F0.1741109234356077
sg24
I231946
sg25
F0.09079648028434091
sg26
F0.02068012339830015
ssS'DODSON KEITH'
p353
(dp354
g3
I176
sg4
g5
sg6
I28164
sg7
I00
sg8
F0.4375
sg9
F1.0
sg10
S'keith.dodson@enron.com'
p355
sg12
F0.0
sg13
g5
sg14
I114
sg15
g5
sg16
I14
sg17
F0.00010420564000236414
sg18
g5
sg19
I70000
sg20
F0.0014311189650867407
sg21
I10
sg22
F0.0049261083743842365
sg23
F0.15831260784688922
sg24
I221003
sg25
F0.018544584475436356
sg26
F0.0
ssS'YEAGER F SCOTT'
p356
(dp357
g3
g5
sg4
g5
sg6
I53947
sg7
I01
sg8
F0.625
sg9
F1.0
sg10
S'scott.yeager@enron.com'
p358
sg12
F0.0
sg13
g5
sg14
g5
sg15
g5
sg16
g5
sg17
F0.019918894623190925
sg18
g5
sg19
g5
sg20
F0.38717267815285716
sg21
g5
sg22
F0.0
sg23
F0.3756904814642547
sg24
I158403
sg25
F0.02088389355068503
sg26
F0.2700557341361573
ssS'HIRKO JOSEPH'
p359
(dp360
g3
g5
sg4
I10259
sg6
I77978
sg7
I01
sg8
F0.6875
sg9
F1.0
sg10
S'joe.hirko@enron.com'
p361
sg12
F0.0
sg13
g5
sg14
g5
sg15
g5
sg16
g5
sg17
F0.0003845107336521344
sg18
g5
sg19
g5
sg20
F1.0
sg21
g5
sg22
F0.0
sg23
F0.15831260784688922
sg24
g5
sg25
F0.005279979226235225
sg26
F1.0
ssS'DIETRICH JANET R'
p362
(dp363
g3
I2572
sg4
g5
sg6
I3475
sg7
I00
sg8
F0.1875
sg9
F1.0
sg10
S'janet.dietrich@enron.com'
p364
sg12
F0.10813781694605352
sg13
g5
sg14
I1902
sg15
g5
sg16
I63
sg17
F6.36812244458892e-05
sg18
g5
sg19
I600000
sg20
F0.06196592896297153
sg21
I305
sg22
F0.022988505747126436
sg23
F0.17746385693177866
sg24
I250100
sg25
F0.08175403839320958
sg26
F0.05038080269221308
ssS'DERRICK JR. JAMES V'
p365
(dp366
g3
I2181
sg4
g5
sg6
I51124
sg7
I00
sg8
F0.0625
sg9
F0.6336020061716946
sg10
S'james.derrick@enron.com'
p367
sg12
F0.09406397983143891
sg13
I-1787380
sg14
I1401
sg15
g5
sg16
I909
sg17
F0.00100732118668952
sg18
g5
sg19
I800000
sg20
F0.2880870097481165
sg21
I64
sg22
F0.03284072249589491
sg23
F0.26695759746611325
sg24
I492375
sg25
F0.03193624355384399
sg26
F0.2870667174065555
ssS'FREVERT MARK A'
p368
(dp369
g3
I3275
sg4
I6426990
sg6
I86987
sg7
I00
sg8
F0.0
sg9
F0.039200875702619514
sg10
S'mark.frevert@enron.com'
p370
sg12
F0.31426134316366705
sg13
g5
sg14
I2979
sg15
I2000000
sg16
I21
sg17
F1.0
sg18
g5
sg19
I2000000
sg20
F0.4760208784395354
sg21
I242
sg22
F0.009852216748768473
sg23
F0.4129186136953301
sg24
I1060932
sg25
F1.0
sg26
F0.33912423766654065
ssS'PAI LOU L'
p371
(dp372
g3
g5
sg4
g5
sg6
I32047
sg7
I00
sg8
F0.5625
sg9
F1.0
sg10
S'lou.pai@enron.com'
p373
sg12
F0.0
sg13
g5
sg14
g5
sg15
g5
sg16
g5
sg17
F0.24630457046744847
sg18
g5
sg19
I1000000
sg20
F0.7744856022642144
sg21
g5
sg22
F0.0
sg23
F0.6721703176670619
sg24
I261879
sg25
F0.1810391287538697
sg26
F0.4993868243919664
ssS'BAY FRANKLIN R'
p374
(dp375
g3
g5
sg4
I260455
sg6
I129142
sg7
I00
sg8
F0.4375
sg9
F0.9424603910642264
sg10
S'frank.bay@enron.com'
p376
sg12
F0.0
sg13
I-82782
sg14
g5
sg15
g5
sg16
g5
sg17
F9.289650077730137e-06
sg18
g5
sg19
I400000
sg20
F0.003476353593394542
sg21
g5
sg22
F0.0
sg23
F0.16717474399394489
sg24
I239671
sg25
F0.04797534042833138
sg26
F0.0
ssS'HAYSLETT RODERICK J'
p377
(dp378
g3
I2649
sg4
g5
sg6
g5
sg7
I00
sg8
F0.625
sg9
F1.0
sg10
S'rod.hayslett@enron.com'
p379
sg12
F0.0
sg13
g5
sg14
I571
sg15
g5
sg16
I1061
sg17
F0.0
sg18
g5
sg19
g5
sg20
F0.012682700708081428
sg21
I35
sg22
F0.06239737274220033
sg23
F0.1793843430326746
sg24
g5
sg25
F0.0
sg26
F0.0
ssS'FUGH JOHN L'
p380
(dp381
g3
g5
sg4
I50591
sg6
g5
sg7
I00
sg8
F0.875
sg9
F1.0
sg10
g5
sg12
F0.0
sg13
g5
sg14
g5
sg15
g5
sg16
g5
sg17
F0.0
sg18
g5
sg19
g5
sg20
F0.007155789566408247
sg21
g5
sg22
F0.0
sg23
F0.15831260784688922
sg24
g5
sg25
F0.0029323815115812
sg26
F0.00573287502749783
ssS'FALLON JAMES B'
p382
(dp383
g3
I1755
sg4
g5
sg6
I95924
sg7
I00
sg8
F0.1875
sg9
F1.0
sg10
S'jim.fallon@enron.com'
p384
sg12
F0.07275324102884227
sg13
g5
sg14
I1604
sg15
g5
sg16
I75
sg17
F0.054052434824017004
sg18
g5
sg19
I2500000
sg20
F0.07713339467890411
sg21
I42
sg22
F0.060755336617405585
sg23
F0.2429332554643437
sg24
I304588
sg25
F0.2130899062340422
sg26
F0.030561497889362774
ssS'KOENIG MARK E'
p385
(dp386
g3
I2374
sg4
g5
sg6
I127017
sg7
I01
sg8
F0.1875
sg9
F1.0
sg10
S'mark.koenig@enron.com'
p387
sg12
F0.058304119730230725
sg13
g5
sg14
I2271
sg15
g5
sg16
I61
sg17
F0.02025655320862494
sg18
g5
sg19
I700000
sg20
F0.06375001594441729
sg21
I53
sg22
F0.024630541871921183
sg23
F0.23419098634026528
sg24
I309946
sg25
F0.09201091086350814
sg26
F0.02183369962436534
ssS'SAVAGE FRANK'
p388
(dp389
g3
g5
sg4
g5
sg6
g5
sg7
I00
sg8
F0.9375
sg9
F0.9653907988446478
sg10
g5
sg12
F0.0
sg13
g5
sg14
g5
sg15
g5
sg16
g5
sg17
F0.0
sg18
I125034
sg19
g5
sg20
F0.0014311189650867407
sg21
g5
sg22
F0.0
sg23
F0.15831260784688922
sg24
g5
sg25
F0.00021735942496549783
sg26
F0.0
ssS'IZZO LAWRENCE L'
p390
(dp391
g3
I496
sg4
g5
sg6
I28093
sg7
I00
sg8
F0.25
sg9
F1.0
sg10
S'larry.izzo@enron.com'
p392
sg12
F0.06073345805232367
sg13
g5
sg14
I437
sg15
g5
sg16
I19
sg17
F0.20918259022639954
sg18
g5
sg19
g5
sg20
F0.19032921513512574
sg21
I28
sg22
F0.008210180623973728
sg23
F0.38046826429389935
sg24
I85274
sg25
F0.1147423595263999
sg26
F0.07037533302927537
ssS'TILNEY ELIZABETH A'
p393
(dp394
g3
I460
sg4
g5
sg6
g5
sg7
I00
sg8
F0.1875
sg9
F0.8359199015176981
sg10
S'elizabeth.tilney@enron.com'
p395
sg12
F0.05344544308604483
sg13
g5
sg14
I379
sg15
g5
sg16
I19
sg17
F0.020471561486510956
sg18
g5
sg19
I300000
sg20
F0.03934205852959464
sg21
I10
sg22
F0.0180623973727422
sg23
F0.1933726179468408
sg24
I247338
sg25
F0.023149822084065352
sg26
F0.019217602875687967
ssS'MARTIN AMANDA K'
p396
(dp397
g3
I1522
sg4
I85430
sg6
I8211
sg7
I00
sg8
F0.25
sg9
F1.0
sg10
S'a..martin@enron.com'
p398
sg12
F1.0
sg13
g5
sg14
I477
sg15
g5
sg16
I230
sg17
F0.379455817683751
sg18
g5
sg19
g5
sg20
F0.0686266869720917
sg21
I8
sg22
F0.0
sg23
F0.15831260784688922
sg24
I349487
sg25
F0.48729177691619724
sg26
F0.06729187067933032
ssS'BUY RICHARD B'
p399
(dp400
g3
I3523
sg4
I649584
sg6
g5
sg7
I00
sg8
F0.125
sg9
F0.80171647757981
sg10
S'rick.buy@enron.com'
p401
sg12
F0.1496204207458496
sg13
g5
sg14
I2333
sg15
g5
sg16
I1053
sg17
F0.05393005378168864
sg18
g5
sg19
I900000
sg20
F0.11322769306238849
sg21
I156
sg22
F0.11658456486042693
sg23
F0.21311937272346873
sg24
I330546
sg25
F0.13654240856268618
sg26
F0.08264992883067525
ssS'GRAMM WENDY L'
p402
(dp403
g3
g5
sg4
g5
sg6
g5
sg7
I00
sg8
F1.0
sg9
F1.0
sg10
g5
sg12
F0.0
sg13
g5
sg14
g5
sg15
g5
sg16
g5
sg17
F0.0
sg18
I119292
sg19
g5
sg20
F0.0014311189650867407
sg21
g5
sg22
F0.0
sg23
F0.15831260784688922
sg24
g5
sg25
F0.006914464139462444
sg26
F0.0
ssS'CAUSEY RICHARD A'
p404
(dp405
g3
I1892
sg4
g5
sg6
I30674
sg7
I01
sg8
F0.1875
sg9
F0.9329411771420157
sg10
S'richard.causey@enron.com'
p406
sg12
F0.06802147301860251
sg13
g5
sg14
I1585
sg15
g5
sg16
I49
sg17
F0.04145270740119885
sg18
g5
sg19
I1000000
sg20
F0.0826401501297121
sg21
I58
sg22
F0.019704433497536946
sg23
F0.3103992422848065
sg24
I415189
sg25
F0.10831791047457967
sg26
F0.0
ssS'TAYLOR MITCHELL S'
p407
(dp408
g3
I533
sg4
I227449
sg6
g5
sg7
I00
sg8
F0.3125
sg9
F1.0
sg10
S'mitchell.taylor@enron.com'
p409
sg12
F0.0
sg13
g5
sg14
I300
sg15
g5
sg16
I29
sg17
F0.0
sg18
g5
sg19
I600000
sg20
F0.1229835018367482
sg21
I0
sg22
F0.0
sg23
F0.19258278422647232
sg24
I265214
sg25
F0.06333349369628687
sg26
F0.10340126705840565
ssS'DONAHUE JR JEFFREY M'
p410
(dp411
g3
I865
sg4
g5
sg6
I96268
sg7
I00
sg8
F0.1875
sg9
F0.9143929920961903
sg10
S'jeff.donahue@enron.com'
p412
sg12
F0.0
sg13
g5
sg14
I772
sg15
g5
sg16
I22
sg17
F0.00011995765535155872
sg18
g5
sg19
I800000
sg20
F0.03651656172995159
sg21
I188
sg22
F0.0180623973727422
sg23
F0.17746385693177866
sg24
I278601
sg25
F0.0507612506687425
sg26
F0.024894962189508544
ssS'GLISAN JR BEN F'
p413
(dp414
g3
I873
sg4
g5
sg6
I125978
sg7
I01
sg8
F0.1875
sg9
F1.0
sg10
S'ben.glisan@enron.com'
p415
sg12
F0.013803111652000589
sg13
g5
sg14
I874
sg15
g5
sg16
I16
sg17
F0.026967988808260412
sg18
g5
sg19
I600000
sg20
F0.02670025342616722
sg21
I52
sg22
F0.009852216748768473
sg23
F0.18225063586659604
sg24
I274975
sg25
F0.07374477830208091
sg26
F0.012504947009146181
ss.