(dp0
S'METTS MARK'
p1
(dp2
S'to_messages'
p3
I807
sS'deferral_payments'
p4
S'NaN'
p5
sS'expenses'
p6
I94299
sS'poi'
p7
I00
sS'number_of_missing_fields'
p8
I7
sS'deferred_income'
p9
F1.0
sS'email_address'
p10
S'mark.metts@enron.com'
p11
sS'long_term_incentive'
p12
g5
sS'restricted_stock_deferred'
p13
g5
sS'shared_receipt_with_poi'
p14
I702
sS'loan_advances'
p15
g5
sS'from_messages'
p16
I29
sS'other'
p17
I1740
sS'director_fees'
p18
g5
sS'bonus'
p19
I600000
sS'total_stock_value'
p20
F0.020420376306423883
sS'from_poi_to_this_person'
p21
I38
sS'from_this_person_to_poi'
p22
I1
sS'restricted_stock'
p23
I585062
sS'salary'
p24
I365788
sS'total_payments'
p25
I1061827
sS'exercised_stock_options'
p26
F0.0
ssS'BAXTER JOHN C'
p27
(dp28
g3
g5
sg4
I1295738
sg6
I11200
sg7
I00
sg8
I9
sg9
F0.6044799288662835
sg10
g5
sg12
I1586055
sg13
g5
sg14
g5
sg15
g5
sg16
g5
sg17
I2660303
sg18
g5
sg19
I1200000
sg20
F0.3462283882552108
sg21
g5
sg22
g5
sg23
I3942714
sg24
I267102
sg25
I5634343
sg26
F0.21714002805168708
ssS'ELLIOTT STEVEN'
p29
(dp30
g3
g5
sg4
g5
sg6
I78552
sg7
I00
sg8
I10
sg9
F0.8856492977657142
sg10
S'steven.elliott@enron.com'
p31
sg12
g5
sg13
g5
sg14
g5
sg15
g5
sg16
g5
sg17
I12961
sg18
g5
sg19
I350000
sg20
F0.2182016794007249
sg21
g5
sg22
g5
sg23
I1788391
sg24
I170941
sg25
I211725
sg26
F0.15895253939535456
ssS'CORDES WILLIAM R'
p32
(dp33
g3
I764
sg4
g5
sg6
g5
sg7
I00
sg8
I11
sg9
F1.0
sg10
S'bill.cordes@enron.com'
p34
sg12
g5
sg13
g5
sg14
I58
sg15
g5
sg16
I12
sg17
g5
sg18
g5
sg19
g5
sg20
F0.03512731207439157
sg21
I10
sg22
I0
sg23
I386335
sg24
g5
sg25
g5
sg26
F0.021187305597492094
ssS'HANNON KEVIN P'
p35
(dp36
g3
I1045
sg4
g5
sg6
I34039
sg7
I01
sg8
I4
sg9
F0.11054004895579425
sg10
S'kevin.hannon@enron.com'
p37
sg12
I1617011
sg13
g5
sg14
I1035
sg15
g5
sg16
I32
sg17
I11350
sg18
g5
sg19
I1500000
sg20
F0.20886482337626516
sg21
I32
sg22
I21
sg23
I853064
sg24
I243293
sg25
I288682
sg26
F0.18000355846623733
ssS'MORDAUNT KRISTINA M'
p38
(dp39
g3
g5
sg4
g5
sg6
I35018
sg7
I00
sg8
I12
sg9
F1.0
sg10
S'kristina.mordaunt@enron.com'
p40
sg12
g5
sg13
g5
sg14
g5
sg15
g5
sg16
g5
sg17
I1411
sg18
g5
sg19
I325000
sg20
F0.0081986923987437
sg21
g5
sg22
g5
sg23
I208510
sg24
I267093
sg25
I628522
sg26
F0.0
ssS'MEYER ROCKFORD G'
p41
(dp42
g3
I232
sg4
I1848227
sg6
g5
sg7
I00
sg8
I9
sg9
F1.0
sg10
S'rockford.meyer@enron.com'
p43
sg12
g5
sg13
g5
sg14
I22
sg15
g5
sg16
I28
sg17
g5
sg18
g5
sg19
g5
sg20
F0.032455725558295595
sg21
I0
sg22
I0
sg23
I462384
sg24
g5
sg25
I1848227
sg26
F0.016040043341260683
ssS'MCMAHON JEFFREY'
p44
(dp45
g3
I2355
sg4
g5
sg6
I137108
sg7
I00
sg8
I5
sg9
F1.0
sg10
S'jeffrey.mcmahon@enron.com'
p46
sg12
I694862
sg13
g5
sg14
I2228
sg15
g5
sg16
I48
sg17
I297353
sg18
g5
sg19
I2600000
sg20
F0.05540211950234463
sg21
I58
sg22
I26
sg23
I558801
sg24
I370448
sg25
I4099771
sg26
F0.03588544833034216
ssS'HORTON STANLEY C'
p47
(dp48
g3
I2350
sg4
I3131860
sg6
g5
sg7
I00
sg8
I9
sg9
F1.0
sg10
S'stanley.horton@enron.com'
p49
sg12
g5
sg13
g5
sg14
I1074
sg15
g5
sg16
I1073
sg17
g5
sg18
g5
sg19
g5
sg20
F0.23695890287089416
sg21
I44
sg22
I15
sg23
I2046079
sg24
g5
sg25
I3131860
sg26
F0.16936092312620815
ssS'PIPER GREGORY F'
p50
(dp51
g3
I1238
sg4
I1130036
sg6
I43057
sg7
I00
sg8
I3
sg9
F0.9904882053518077
sg10
S'greg.piper@enron.com'
p52
sg12
g5
sg13
I-409554
sg14
I742
sg15
g5
sg16
I222
sg17
I778
sg18
g5
sg19
I400000
sg20
F0.030002541045149492
sg21
I61
sg22
I48
sg23
I409554
sg24
I197091
sg25
I1737629
sg26
F0.028612369785098284
ssS'HUMPHREY GENE E'
p53
(dp54
g3
I128
sg4
I2964506
sg6
I4994
sg7
I00
sg8
I8
sg9
F1.0
sg10
S'gene.humphrey@enron.com'
p55
sg12
g5
sg13
g5
sg14
I119
sg15
g5
sg16
I17
sg17
g5
sg18
g5
sg19
g5
sg20
F0.07552252979431426
sg21
I10
sg22
I17
sg23
g5
sg24
I130724
sg25
I3100224
sg26
F0.0741975964166232
ssS'UMANOFF ADAM S'
p56
(dp57
g3
I111
sg4
g5
sg6
I53122
sg7
I00
sg8
I10
sg9
F1.0
sg10
S'adam.umanoff@enron.com'
p58
sg12
g5
sg13
g5
sg14
I41
sg15
g5
sg16
I18
sg17
g5
sg18
g5
sg19
I788750
sg20
F0.0014311189650867407
sg21
I12
sg22
I0
sg23
g5
sg24
I288589
sg25
I1130461
sg26
F0.0
ssS'BLACHMAN JEREMY M'
p59
(dp60
g3
I2475
sg4
g5
sg6
I84208
sg7
I00
sg8
I5
sg9
F1.0
sg10
S'jeremy.blachman@enron.com'
p61
sg12
I831809
sg13
g5
sg14
I2326
sg15
g5
sg16
I14
sg17
I272
sg18
g5
sg19
I850000
sg20
F0.03240642363490715
sg21
I25
sg22
I2
sg23
I189041
sg24
I248546
sg25
I2014835
sg26
F0.02487523265894526
ssS'SUNDE MARTIN'
p62
(dp63
g3
I2647
sg4
g5
sg6
g5
sg7
I00
sg8
I7
sg9
F1.0
sg10
S'marty.sunde@enron.com'
p64
sg12
I476451
sg13
g5
sg14
I2565
sg15
g5
sg16
I38
sg17
I111122
sg18
g5
sg19
I700000
sg20
F0.024115845953008287
sg21
I37
sg22
I13
sg23
I698920
sg24
I257486
sg25
I1545059
sg26
F0.0
ssS'GIBBS DANA R'
p65
(dp66
g3
I169
sg4
I504610
sg6
g5
sg7
I00
sg8
I9
sg9
F1.0
sg10
S'dana.gibbs@enron.com'
p67
sg12
I461912
sg13
g5
sg14
I23
sg15
g5
sg16
I12
sg17
g5
sg18
g5
sg19
g5
sg20
F0.07342929151578163
sg21
I0
sg22
I0
sg23
g5
sg24
g5
sg25
I966522
sg26
F0.07210135817178304
ssS'LOWRY CHARLES P'
p68
(dp69
g3
g5
sg4
g5
sg6
g5
sg7
I00
sg8
I16
sg9
F1.0
sg10
g5
sg12
g5
sg13
I-153686
sg14
g5
sg15
g5
sg16
g5
sg17
g5
sg18
g5
sg19
g5
sg20
F0.01351171303671059
sg21
g5
sg22
g5
sg23
I153686
sg24
g5
sg25
g5
sg26
F0.012097907616651906
ssS'COLWELL WESLEY'
p70
(dp71
g3
I1758
sg4
I27610
sg6
I16514
sg7
I01
sg8
I5
sg9
F0.9588909440912046
sg10
S'wes.colwell@enron.com'
p72
sg12
g5
sg13
g5
sg14
I1132
sg15
g5
sg16
I40
sg17
I101740
sg18
g5
sg19
I1200000
sg20
F0.02409384022288494
sg21
I240
sg22
I11
sg23
I698242
sg24
I288542
sg25
I1490344
sg26
F0.0
ssS'MULLER MARK S'
p73
(dp74
g3
I136
sg4
I842924
sg6
g5
sg7
I00
sg8
I4
sg9
F0.7948285377238694
sg10
S's..muller@enron.com'
p75
sg12
I1725545
sg13
g5
sg14
I114
sg15
g5
sg16
I16
sg17
I947
sg18
g5
sg19
I1100000
sg20
F0.047417512348281766
sg21
I12
sg22
I0
sg23
I360528
sg24
I251654
sg25
I3202070
sg26
F0.034333933648451095
ssS'JACKSON CHARLENE R'
p76
(dp77
g3
I258
sg4
g5
sg6
I10181
sg7
I00
sg8
I6
sg9
F1.0
sg10
S'charlene.jackson@enron.com'
p78
sg12
g5
sg13
g5
sg14
I117
sg15
g5
sg16
I56
sg17
I2435
sg18
g5
sg19
I250000
sg20
F0.024986175825069637
sg21
I25
sg22
I19
sg23
I540672
sg24
I288558
sg25
I551174
sg26
F0.006015166580944511
ssS'WESTFAHL RICHARD K'
p79
(dp80
g3
g5
sg4
g5
sg6
I51870
sg7
I00
sg8
I11
sg9
F0.9969181477154628
sg10
S'dick.westfahl@enron.com'
p81
sg12
I256191
sg13
g5
sg14
g5
sg15
g5
sg16
g5
sg17
I401130
sg18
g5
sg19
g5
sg20
F0.013924726186887006
sg21
g5
sg22
g5
sg23
I384930
sg24
I63744
sg25
I762135
sg26
F0.0
ssS'WALTERS GARETH W'
p82
(dp83
g3
g5
sg4
I53625
sg6
I33785
sg7
I00
sg8
I15
sg9
F1.0
sg10
g5
sg12
g5
sg13
g5
sg14
g5
sg15
g5
sg16
g5
sg17
g5
sg18
g5
sg19
g5
sg20
F0.03487233122505672
sg21
g5
sg22
g5
sg23
g5
sg24
g5
sg25
I87410
sg26
F0.03348913920220669
ssS'WALLS JR ROBERT H'
p84
(dp85
g3
I671
sg4
g5
sg6
I50936
sg7
I00
sg8
I5
sg9
F1.0
sg10
S'rob.walls@enron.com'
p86
sg12
I540751
sg13
g5
sg14
I215
sg15
g5
sg16
I146
sg17
I2
sg18
g5
sg19
I850000
sg20
F0.19289385639936857
sg21
I17
sg22
I0
sg23
I1552453
sg24
I357091
sg25
I1798780
sg26
F0.1412772202515083
ssS'KITCHEN LOUISE'
p87
(dp88
g3
I8305
sg4
g5
sg6
I5774
sg7
I00
sg8
I6
sg9
F1.0
sg10
S'louise.kitchen@enron.com'
p89
sg12
g5
sg13
g5
sg14
I3669
sg15
g5
sg16
I1728
sg17
I93925
sg18
g5
sg19
I3100000
sg20
F0.019189645804141797
sg21
I251
sg22
I194
sg23
I466101
sg24
I271442
sg25
I3471141
sg26
F0.0026341361052879563
ssS'CHAN RONNIE'
p90
(dp91
g3
g5
sg4
g5
sg6
g5
sg7
I00
sg8
I16
sg9
F0.9718113244374336
sg10
g5
sg12
g5
sg13
I-32460
sg14
g5
sg15
g5
sg16
g5
sg17
g5
sg18
I98784
sg19
g5
sg20
F0.0014311189650867407
sg21
g5
sg22
g5
sg23
I32460
sg24
g5
sg25
g5
sg26
F0.0
ssS'BELFER ROBERT'
p92
(dp93
g3
g5
sg4
I-102500
sg6
g5
sg7
I00
sg8
I14
sg9
F1.0
sg10
g5
sg12
g5
sg13
I44093
sg14
g5
sg15
g5
sg16
g5
sg17
g5
sg18
I3285
sg19
g5
sg20
F0.0
sg21
g5
sg22
g5
sg23
g5
sg24
g5
sg25
I102500
sg26
F0.000106773489127501
ssS'SHANKMAN JEFFREY A'
p94
(dp95
g3
I3221
sg4
g5
sg6
I178979
sg7
I00
sg8
I5
sg9
F1.0
sg10
S'jeffrey.shankman@enron.com'
p96
sg12
I554422
sg13
g5
sg14
I1730
sg15
g5
sg16
I2681
sg17
I1191
sg18
g5
sg19
I2000000
sg20
F0.06868280482958915
sg21
I94
sg22
I83
sg23
I630137
sg24
I304110
sg25
I3038702
sg26
F0.04686650850105493
ssS'WODRASKA JOHN'
p97
(dp98
g3
g5
sg4
g5
sg6
g5
sg7
I00
sg8
I17
sg9
F1.0
sg10
S'john.wodraska@enron.com'
p99
sg12
g5
sg13
g5
sg14
g5
sg15
g5
sg16
g5
sg17
I189583
sg18
g5
sg19
g5
sg20
F0.0014311189650867407
sg21
g5
sg22
g5
sg23
g5
sg24
g5
sg25
I189583
sg26
F0.0
ssS'BERGSIEKER RICHARD P'
p100
(dp101
g3
I383
sg4
g5
sg6
I59175
sg7
I00
sg8
I5
sg9
F0.8613700088974217
sg10
S'rick.bergsieker@enron.com'
p102
sg12
I180250
sg13
g5
sg14
I233
sg15
g5
sg16
I59
sg17
I427316
sg18
g5
sg19
I250000
sg20
F0.02282825108615967
sg21
I4
sg22
I0
sg23
I659249
sg24
I187922
sg25
I618850
sg26
F0.0
ssS'URQUHART JOHN A'
p103
(dp104
g3
g5
sg4
g5
sg6
I228656
sg7
I00
sg8
I16
sg9
F0.9895371114939964
sg10
g5
sg12
g5
sg13
g5
sg14
g5
sg15
g5
sg16
g5
sg17
g5
sg18
I36666
sg19
g5
sg20
F0.0014311189650867407
sg21
g5
sg22
g5
sg23
g5
sg24
g5
sg25
I228656
sg26
F0.0
ssS'BIBI PHILIPPE A'
p105
(dp106
g3
I1607
sg4
g5
sg6
I38559
sg7
I00
sg8
I5
sg9
F1.0
sg10
S'philippe.bibi@enron.com'
p107
sg12
I369721
sg13
g5
sg14
I1336
sg15
g5
sg16
I40
sg17
I425688
sg18
g5
sg19
I1000000
sg20
F0.06127553975138783
sg21
I23
sg22
I8
sg23
I378082
sg24
I213625
sg25
I2047593
sg26
F0.04764125823829789
ssS'RIEKER PAULA H'
p108
(dp109
g3
I1328
sg4
I214678
sg6
I33271
sg7
I01
sg8
I4
sg9
F0.9714643306987301
sg10
S'paula.rieker@enron.com'
p110
sg12
g5
sg13
g5
sg14
I1258
sg15
g5
sg16
I82
sg17
I1950
sg18
g5
sg19
I700000
sg20
F0.0637121063680396
sg21
I35
sg22
I48
sg23
I283649
sg24
I249201
sg25
I1099100
sg26
F0.05315070527058645
ssS'WHALEY DAVID A'
p111
(dp112
g3
g5
sg4
g5
sg6
g5
sg7
I00
sg8
I18
sg9
F1.0
sg10
g5
sg12
g5
sg13
g5
sg14
g5
sg15
g5
sg16
g5
sg17
g5
sg18
g5
sg19
g5
sg20
F0.004635192219241207
sg21
g5
sg22
g5
sg23
g5
sg24
g5
sg25
g5
sg26
F0.003208665235826071
ssS'BECK SALLY W'
p113
(dp114
g3
I7315
sg4
g5
sg6
I37172
sg7
I00
sg8
I7
sg9
F1.0
sg10
S'sally.beck@enron.com'
p115
sg12
g5
sg13
g5
sg14
I2639
sg15
g5
sg16
I4343
sg17
I566
sg18
g5
sg19
I700000
sg20
F0.0055215557648732524
sg21
I144
sg22
I386
sg23
I126027
sg24
I231330
sg25
I969068
sg26
F0.0
ssS'HAUG DAVID L'
p116
(dp117
g3
I573
sg4
g5
sg6
I475
sg7
I00
sg8
I10
sg9
F1.0
sg10
S'david.haug@enron.com'
p118
sg12
g5
sg13
g5
sg14
I471
sg15
g5
sg16
I19
sg17
g5
sg18
g5
sg19
g5
sg20
F0.07339761365058932
sg21
I4
sg22
I7
sg23
I2217299
sg24
g5
sg25
I475
sg26
F0.0
ssS'ECHOLS JOHN B'
p119
(dp120
g3
g5
sg4
g5
sg6
I21530
sg7
I00
sg8
I10
sg9
F1.0
sg10
S'john.echols@enron.com'
p121
sg12
I2234774
sg13
g5
sg14
g5
sg15
g5
sg16
g5
sg17
I53775
sg18
g5
sg19
I200000
sg20
F0.03417814456446944
sg21
g5
sg22
g5
sg23
I407503
sg24
I182245
sg25
I2692324
sg26
F0.019548746957036817
ssS'MENDELSOHN JOHN'
p122
(dp123
g3
g5
sg4
g5
sg6
I148
sg7
I00
sg8
I16
sg9
F0.9703942430999325
sg10
g5
sg12
g5
sg13
g5
sg14
g5
sg15
g5
sg16
g5
sg17
g5
sg18
I103750
sg19
g5
sg20
F0.0014311189650867407
sg21
g5
sg22
g5
sg23
g5
sg24
g5
sg25
I148
sg26
F0.0
ssS'HICKERSON GARY J'
p124
(dp125
g3
I1320
sg4
g5
sg6
I98849
sg7
I00
sg8
I6
sg9
F1.0
sg10
S'gary.hickerson@enron.com'
p126
sg12
I69223
sg13
g5
sg14
I900
sg15
g5
sg16
I27
sg17
I1936
sg18
g5
sg19
I1700000
sg20
F0.015747696449583168
sg21
I40
sg22
I1
sg23
I441096
sg24
I211788
sg25
I2081796
sg26
F0.0
ssS'CLINE KENNETH W'
p127
(dp128
g3
g5
sg4
g5
sg6
g5
sg7
I00
sg8
I17
sg9
F1.0
sg10
g5
sg12
g5
sg13
I-472568
sg14
g5
sg15
g5
sg16
g5
sg17
g5
sg18
g5
sg19
g5
sg20
F0.007582272300657215
sg21
g5
sg22
g5
sg23
I662086
sg24
g5
sg25
g5
sg26
F0.0
ssS'LEWIS RICHARD'
p129
(dp130
g3
I952
sg4
g5
sg6
g5
sg7
I00
sg8
I12
sg9
F1.0
sg10
S'richard.lewis@enron.com'
p131
sg12
g5
sg13
g5
sg14
I739
sg15
g5
sg16
I26
sg17
g5
sg18
g5
sg19
g5
sg20
F0.029034905599474876
sg21
I10
sg22
I0
sg23
g5
sg24
g5
sg25
g5
sg26
F0.02764334755333019
ssS'HAYES ROBERT E'
p132
(dp133
g3
I504
sg4
I7961
sg6
g5
sg7
I00
sg8
I10
sg9
F1.0
sg10
S'robert.hayes@enron.com'
p134
sg12
g5
sg13
g5
sg14
I50
sg15
g5
sg16
I12
sg17
g5
sg18
g5
sg19
g5
sg20
F0.006345667112309749
sg21
I16
sg22
I0
sg23
I151418
sg24
g5
sg25
I7961
sg26
F0.0
ssS'MCCARTY DANNY J'
p135
(dp136
g3
I1433
sg4
g5
sg6
g5
sg7
I00
sg8
I11
sg9
F1.0
sg10
S'danny.mccarty@enron.com'
p137
sg12
g5
sg13
g5
sg14
I508
sg15
g5
sg16
I215
sg17
g5
sg18
g5
sg19
g5
sg20
F0.026063612723557363
sg21
I25
sg22
I2
sg23
I94556
sg24
g5
sg25
g5
sg26
F0.021594409996676858
ssS'KOPPER MICHAEL J'
p138
(dp139
g3
g5
sg4
g5
sg6
I118134
sg7
I01
sg8
I11
sg9
F1.0
sg10
S'michael.kopper@enron.com'
p140
sg12
I602671
sg13
g5
sg14
g5
sg15
g5
sg16
g5
sg17
I907502
sg18
g5
sg19
I800000
sg20
F0.03340213423774504
sg21
g5
sg22
g5
sg23
I985032
sg24
I224305
sg25
I2652612
sg26
F0.0
ssS'LEFF DANIEL P'
p141
(dp142
g3
I2822
sg4
g5
sg6
g5
sg7
I00
sg8
I7
sg9
F1.0
sg10
S'dan.leff@enron.com'
p143
sg12
I1387399
sg13
g5
sg14
I2672
sg15
g5
sg16
I63
sg17
I3083
sg18
g5
sg19
I1000000
sg20
F0.013132714643420999
sg21
I67
sg22
I14
sg23
I360528
sg24
I273746
sg25
I2664228
sg26
F0.0
ssS'LAVORATO JOHN J'
p144
(dp145
g3
I7259
sg4
g5
sg6
I49537
sg7
I00
sg8
I5
sg9
F1.0
sg10
S'john.lavorato@enron.com'
p146
sg12
I2035380
sg13
g5
sg14
I3962
sg15
g5
sg16
I2585
sg17
I1552
sg18
g5
sg19
I8000000
sg20
F0.16914022865901007
sg21
I528
sg22
I411
sg23
I1008149
sg24
I339288
sg25
I10425757
sg26
F0.13518125035428646
ssS'BERBERIAN DAVID'
p147
(dp148
g3
g5
sg4
g5
sg6
I11892
sg7
I00
sg8
I13
sg9
F1.0
sg10
S'david.berberian@enron.com'
p149
sg12
g5
sg13
g5
sg14
g5
sg15
g5
sg16
g5
sg17
g5
sg18
g5
sg19
g5
sg20
F0.08236598729438477
sg21
g5
sg22
g5
sg23
I869220
sg24
I216582
sg25
I228474
sg26
F0.05279830400144783
ssS'DETMERING TIMOTHY J'
p150
(dp151
g3
g5
sg4
I875307
sg6
I52255
sg7
I00
sg8
I7
sg9
F0.7787797919521423
sg10
S'timothy.detmering@enron.com'
p152
sg12
I415657
sg13
I-315068
sg14
g5
sg15
g5
sg16
g5
sg17
I1105
sg18
g5
sg19
I425000
sg20
F0.06724918668866245
sg21
g5
sg22
g5
sg23
I315068
sg24
I210500
sg25
I1204583
sg26
F0.0659123962038173
ssS'WAKEHAM JOHN'
p153
(dp154
g3
g5
sg4
g5
sg6
I103773
sg7
I00
sg8
I17
sg9
F1.0
sg10
g5
sg12
g5
sg13
g5
sg14
g5
sg15
g5
sg16
g5
sg17
g5
sg18
I109298
sg19
g5
sg20
F0.0014311189650867407
sg21
g5
sg22
g5
sg23
g5
sg24
g5
sg25
I213071
sg26
F0.0
ssS'POWERS WILLIAM'
p155
(dp156
g3
I653
sg4
g5
sg6
g5
sg7
I00
sg8
I12
sg9
F0.9950062578722778
sg10
S'ken.powers@enron.com'
p157
sg12
g5
sg13
g5
sg14
I12
sg15
g5
sg16
I26
sg17
g5
sg18
I17500
sg19
g5
sg20
F0.0014311189650867407
sg21
I0
sg22
I0
sg23
g5
sg24
g5
sg25
g5
sg26
F0.0
ssS'GOLD JOSEPH'
p158
(dp159
g3
g5
sg4
g5
sg6
g5
sg7
I00
sg8
I11
sg9
F1.0
sg10
S'joe.gold@enron.com'
p160
sg12
I304805
sg13
g5
sg14
g5
sg15
g5
sg16
g5
sg17
I819288
sg18
g5
sg19
I750000
sg20
F0.029915589200016086
sg21
g5
sg22
g5
sg23
I441096
sg24
I272880
sg25
I2146973
sg26
F0.01418819774931236
ssS'BANNANTINE JAMES M'
p161
(dp162
g3
I566
sg4
g5
sg6
I56301
sg7
I00
sg8
I5
sg9
F0.9985435394388632
sg10
S'james.bannantine@enron.com'
p163
sg12
g5
sg13
I-560222
sg14
I465
sg15
g5
sg16
I29
sg17
I864523
sg18
g5
sg19
g5
sg20
F0.17161808036226495
sg21
I39
sg22
I0
sg23
I1757552
sg24
I477
sg25
I916197
sg26
F0.13151363788361098
ssS'DUNCAN JOHN H'
p164
(dp165
g3
g5
sg4
g5
sg6
g5
sg7
I00
sg8
I15
sg9
F0.9928660826746826
sg10
g5
sg12
g5
sg13
g5
sg14
g5
sg15
g5
sg16
g5
sg17
g5
sg18
I102492
sg19
g5
sg20
F0.013496945179474418
sg21
g5
sg22
g5
sg23
g5
sg24
g5
sg25
I77492
sg26
F0.012083118594565753
ssS'SHAPIRO RICHARD S'
p166
(dp167
g3
I15149
sg4
g5
sg6
I137767
sg7
I00
sg8
I6
sg9
F1.0
sg10
S'richard.shapiro@enron.com'
p168
sg12
g5
sg13
g5
sg14
I4527
sg15
g5
sg16
I1215
sg17
I705
sg18
g5
sg19
I650000
sg20
F0.033466041734224204
sg21
I74
sg22
I65
sg23
I379164
sg24
I269076
sg25
I1057548
sg26
F0.019756735863255045
ssS'SHERRIFF JOHN R'
p169
(dp170
g3
I3187
sg4
g5
sg6
g5
sg7
I00
sg8
I6
sg9
F1.0
sg10
S'john.sherriff@enron.com'
p171
sg12
I554422
sg13
g5
sg14
I2103
sg15
g5
sg16
I92
sg17
I1852186
sg18
g5
sg19
I1500000
sg20
F0.10298795296628965
sg21
I28
sg22
I23
sg23
I1293424
sg24
I428780
sg25
I4335388
sg26
F0.05966177538992313
ssS'SHELBY REX'
p172
(dp173
g3
I225
sg4
g5
sg6
I22884
sg7
I01
sg8
I5
sg9
F0.9988109186602161
sg10
S'rex.shelby@enron.com'
p174
sg12
g5
sg13
g5
sg14
I91
sg15
g5
sg16
I39
sg17
I1573324
sg18
g5
sg19
I200000
sg20
F0.08236598729438477
sg21
I13
sg22
I14
sg23
I869220
sg24
I211844
sg25
I2003885
sg26
F0.05279830400144783
ssS'LEMAISTRE CHARLES'
p175
(dp176
g3
g5
sg4
g5
sg6
g5
sg7
I00
sg8
I15
sg9
F0.9928660826746826
sg10
g5
sg12
g5
sg13
g5
sg14
g5
sg15
g5
sg16
g5
sg17
g5
sg18
I112492
sg19
g5
sg20
F0.014831829646307871
sg21
g5
sg22
g5
sg23
g5
sg24
g5
sg25
I87492
sg26
F0.013419916177773016
ssS'DEFFNER JOSEPH M'
p177
(dp178
g3
I714
sg4
g5
sg6
I41626
sg7
I00
sg8
I5
sg9
F1.0
sg10
S'joseph.deffner@enron.com'
p179
sg12
I335349
sg13
g5
sg14
I552
sg15
g5
sg16
I74
sg17
I25553
sg18
g5
sg19
I600000
sg20
F0.006598603181411896
sg21
I115
sg22
I4
sg23
I141833
sg24
I206121
sg25
I1208649
sg26
F0.0005648431336553159
ssS'KISHKILL JOSEPH G'
p180
(dp181
g3
g5
sg4
g5
sg6
I116335
sg7
I00
sg8
I12
sg9
F0.9854348236752458
sg10
S'joe.kishkill@enron.com'
p182
sg12
g5
sg13
g5
sg14
g5
sg15
g5
sg16
g5
sg17
I465357
sg18
g5
sg19
g5
sg20
F0.0350027103075132
sg21
g5
sg22
g5
sg23
I1034346
sg24
I174246
sg25
I704896
sg26
F0.0
ssS'WHALLEY LAWRENCE G'
p183
(dp184
g3
I6019
sg4
g5
sg6
I57838
sg7
I00
sg8
I5
sg9
F1.0
sg10
S'greg.whalley@enron.com'
p185
sg12
I808346
sg13
g5
sg14
I3920
sg15
g5
sg16
I556
sg17
I301026
sg18
g5
sg19
I3000000
sg20
F0.19874062959172847
sg21
I186
sg22
I24
sg23
I2796177
sg24
I510364
sg25
I4677574
sg26
F0.10670718230320264
ssS'MCCONNELL MICHAEL S'
p186
(dp187
g3
I3329
sg4
g5
sg6
I81364
sg7
I00
sg8
I5
sg9
F1.0
sg10
S'mike.mcconnell@enron.com'
p188
sg12
I554422
sg13
g5
sg14
I2189
sg15
g5
sg16
I2742
sg17
I540
sg18
g5
sg19
I1100000
sg20
F0.10208880142999596
sg21
I92
sg22
I194
sg23
I1478269
sg24
I365038
sg25
I2101364
sg26
F0.05275325436493924
ssS'PIRO JIM'
p189
(dp190
g3
I58
sg4
g5
sg6
g5
sg7
I00
sg8
I12
sg9
F1.0
sg10
S'jim.piro@enron.com'
p191
sg12
g5
sg13
g5
sg14
I3
sg15
g5
sg16
I16
sg17
g5
sg18
g5
sg19
g5
sg20
F0.0029664568083830277
sg21
I0
sg22
I1
sg23
I47304
sg24
g5
sg25
g5
sg26
F0.0
ssS'DELAINEY DAVID W'
p192
(dp193
g3
I3093
sg4
g5
sg6
I86174
sg7
I01
sg8
I5
sg9
F1.0
sg10
S'david.delainey@enron.com'
p194
sg12
I1294981
sg13
g5
sg14
I2097
sg15
g5
sg16
I3069
sg17
I1661
sg18
g5
sg19
I3000000
sg20
F0.11873857053049097
sg21
I66
sg22
I609
sg23
I1323148
sg24
I365163
sg25
I4747979
sg26
F0.07446883683268682
ssS'SULLIVAN-SHAKLOVITZ COLLEEN'
p195
(dp196
g3
g5
sg4
I181993
sg6
g5
sg7
I00
sg8
I12
sg9
F1.0
sg10
g5
sg12
I554422
sg13
g5
sg14
g5
sg15
g5
sg16
g5
sg17
I162
sg18
g5
sg19
I100000
sg20
F0.045649491497235795
sg21
g5
sg22
g5
sg23
g5
sg24
I162779
sg25
I999356
sg26
F0.044281744977193054
ssS'WROBEL BRUCE'
p197
(dp198
g3
g5
sg4
g5
sg6
g5
sg7
I00
sg8
I18
sg9
F1.0
sg10
g5
sg12
g5
sg13
g5
sg14
g5
sg15
g5
sg16
g5
sg17
g5
sg18
g5
sg19
g5
sg20
F0.0059468375964458735
sg21
g5
sg22
g5
sg23
g5
sg24
g5
sg25
g5
sg26
F0.0045221904238384215
ssS'LINDHOLM TOD A'
p199
(dp200
g3
g5
sg4
I204075
sg6
I57727
sg7
I00
sg8
I9
sg9
F1.0
sg10
S'tod.lindholm@enron.com'
p201
sg12
I175000
sg13
g5
sg14
g5
sg15
g5
sg16
g5
sg17
I2630
sg18
g5
sg19
I200000
sg20
F0.1008855943187826
sg21
g5
sg22
g5
sg23
I514847
sg24
I236457
sg25
I875889
sg26
F0.08286276073533488
ssS'MEYER JEROME J'
p202
(dp203
g3
g5
sg4
g5
sg6
I2151
sg7
I00
sg8
I16
sg9
F0.989057712249735
sg10
g5
sg12
g5
sg13
g5
sg14
g5
sg15
g5
sg16
g5
sg17
g5
sg18
I38346
sg19
g5
sg20
F0.0014311189650867407
sg21
g5
sg22
g5
sg23
g5
sg24
g5
sg25
I2151
sg26
F0.0
ssS'BUTTS ROBERT H'
p204
(dp205
g3
g5
sg4
g5
sg6
I9410
sg7
I00
sg8
I10
sg9
F0.9785982480240476
sg10
S'bob.butts@enron.com'
p206
sg12
I175000
sg13
g5
sg14
g5
sg15
g5
sg16
g5
sg17
I150656
sg18
g5
sg19
I750000
sg20
F0.014985707473025859
sg21
g5
sg22
g5
sg23
I417619
sg24
I261516
sg25
I1271582
sg26
F0.0
ssS'OLSON CINDY K'
p207
(dp208
g3
I1184
sg4
I77716
sg6
I63791
sg7
I00
sg8
I4
sg9
F1.0
sg10
S'cindy.olson@enron.com'
p209
sg12
I100000
sg13
g5
sg14
I856
sg15
g5
sg16
I52
sg17
I972
sg18
g5
sg19
I750000
sg20
F0.08603838013548584
sg21
I20
sg22
I15
sg23
I969729
sg24
I329078
sg25
I1321557
sg26
F0.053209081278645196
ssS'MCDONALD REBECCA'
p210
(dp211
g3
I894
sg4
g5
sg6
g5
sg7
I00
sg8
I11
sg9
F1.0
sg10
S'rebecca.mcdonald@enron.com'
p212
sg12
g5
sg13
g5
sg14
I720
sg15
g5
sg16
I13
sg17
g5
sg18
g5
sg19
g5
sg20
F0.05632749615654344
sg21
I54
sg22
I1
sg23
I934065
sg24
g5
sg25
g5
sg26
F0.024614815856847987
ssS'CUMBERLAND MICHAEL S'
p213
(dp214
g3
g5
sg4
g5
sg6
I22344
sg7
I00
sg8
I12
sg9
F1.0
sg10
g5
sg12
I275000
sg13
g5
sg14
g5
sg15
g5
sg16
g5
sg17
I713
sg18
g5
sg19
I325000
sg20
F0.008180192006162124
sg21
g5
sg22
g5
sg23
I207940
sg24
I184899
sg25
I807956
sg26
F0.0
ssS'GAHN ROBERT S'
p215
(dp216
g3
g5
sg4
I73122
sg6
I50080
sg7
I00
sg8
I10
sg9
F0.9997026583258808
sg10
g5
sg12
g5
sg13
g5
sg14
g5
sg15
g5
sg16
g5
sg17
I76547
sg18
g5
sg19
I509870
sg20
F0.011772091911118792
sg21
g5
sg22
g5
sg23
I235370
sg24
I192008
sg25
I900585
sg26
F0.0027054809480991783
ssS'MCCLELLAN GEORGE'
p217
(dp218
g3
I1744
sg4
g5
sg6
I228763
sg7
I00
sg8
I5
sg9
F0.9643304133734126
sg10
S'george.mcclellan@enron.com'
p219
sg12
g5
sg13
g5
sg14
I1469
sg15
g5
sg16
I49
sg17
I51587
sg18
g5
sg19
I900000
sg20
F0.032195681443622635
sg21
I52
sg22
I0
sg23
I441096
sg24
I263413
sg25
I1318763
sg26
F0.01647155775272391
ssS'HERMANN ROBERT J'
p220
(dp221
g3
g5
sg4
g5
sg6
I48357
sg7
I00
sg8
I9
sg9
F0.9201001259564443
sg10
S'robert.hermann@enron.com'
p222
sg12
I150000
sg13
g5
sg14
g5
sg15
g5
sg16
g5
sg17
I416441
sg18
g5
sg19
I700000
sg20
F0.023116565098970445
sg21
g5
sg22
g5
sg23
I480632
sg24
I262663
sg25
I1297461
sg26
F0.006094377233304852
ssS'SCRIMSHAW MATTHEW'
p223
(dp224
g3
g5
sg4
g5
sg6
g5
sg7
I00
sg8
I17
sg9
F1.0
sg10
S'matthew.scrimshaw@enron.com'
p225
sg12
g5
sg13
g5
sg14
g5
sg15
g5
sg16
g5
sg17
g5
sg18
g5
sg19
g5
sg20
F0.026083930698568007
sg21
g5
sg22
g5
sg23
g5
sg24
g5
sg25
g5
sg26
F0.02468814340371911
ssS'GATHMANN WILLIAM D'
p226
(dp227
g3
g5
sg4
g5
sg6
g5
sg7
I00
sg8
I16
sg9
F1.0
sg10
g5
sg12
g5
sg13
I-72419
sg14
g5
sg15
g5
sg16
g5
sg17
g5
sg18
g5
sg19
g5
sg20
F0.064571336004552
sg21
g5
sg22
g5
sg23
I264013
sg24
g5
sg25
g5
sg26
F0.057003261775701954
ssS'HAEDICKE MARK E'
p228
(dp229
g3
I4009
sg4
I2157527
sg6
I76169
sg7
I00
sg8
I2
sg9
F0.7333387360867211
sg10
S'mark.haedicke@enron.com'
p230
sg12
I983346
sg13
I-329825
sg14
I1847
sg15
g5
sg16
I1941
sg17
I52382
sg18
g5
sg19
I1150000
sg20
F0.02749700366668044
sg21
I180
sg22
I61
sg23
I524169
sg24
I374125
sg25
I3859065
sg26
F0.019786411417463085
ssS'BOWEN JR RAYMOND M'
p231
(dp232
g3
I1858
sg4
g5
sg6
I65907
sg7
I01
sg8
I5
sg9
F0.9997622978747204
sg10
S'raymond.bowen@enron.com'
p233
sg12
I974293
sg13
g5
sg14
I1593
sg15
g5
sg16
I27
sg17
I1621
sg18
g5
sg19
I1350000
sg20
F0.009612025021488856
sg21
I140
sg22
I15
sg23
I252055
sg24
I278601
sg25
I2669589
sg26
F0.0
ssS'GILLIS JOHN'
p234
(dp235
g3
g5
sg4
g5
sg6
g5
sg7
I00
sg8
I17
sg9
F1.0
sg10
g5
sg12
g5
sg13
g5
sg14
g5
sg15
g5
sg16
g5
sg17
g5
sg18
g5
sg19
g5
sg20
F0.004210754265224939
sg21
g5
sg22
g5
sg23
I75838
sg24
g5
sg25
g5
sg26
F0.0003186302934297998
ssS'FITZGERALD JAY L'
p236
(dp237
g3
I936
sg4
g5
sg6
I23870
sg7
I00
sg8
I5
sg9
F1.0
sg10
S'jay.fitzgerald@enron.com'
p238
sg12
I556416
sg13
g5
sg14
I723
sg15
g5
sg16
I16
sg17
I285414
sg18
g5
sg19
I350000
sg20
F0.05405129873242775
sg21
I1
sg22
I8
sg23
I956775
sg24
I199157
sg25
I1414857
sg26
F0.021597205284367867
ssS'MORAN MICHAEL P'
p239
(dp240
g3
I672
sg4
g5
sg6
g5
sg7
I00
sg8
I11
sg9
F1.0
sg10
S'michael.moran@enron.com'
p241
sg12
g5
sg13
g5
sg14
I127
sg15
g5
sg16
I19
sg17
g5
sg18
g5
sg19
g5
sg20
F0.008608654606985611
sg21
I0
sg22
I0
sg23
I161602
sg24
g5
sg25
g5
sg26
F0.0019352166724999338
ssS'REDMOND BRIAN L'
p242
(dp243
g3
I1671
sg4
g5
sg6
I14689
sg7
I00
sg8
I8
sg9
F1.0
sg10
S'brian.redmond@enron.com'
p244
sg12
g5
sg13
g5
sg14
I1063
sg15
g5
sg16
I221
sg17
g5
sg18
g5
sg19
g5
sg20
F0.25752601650163615
sg21
I204
sg22
I49
sg23
I381285
sg24
I96840
sg25
I111529
sg26
F0.24406888706985724
ssS'BAZELIDES PHILIP J'
p245
(dp246
g3
g5
sg4
I684694
sg6
g5
sg7
I00
sg8
I13
sg9
F1.0
sg10
g5
sg12
I93750
sg13
g5
sg14
g5
sg15
g5
sg16
g5
sg17
I874
sg18
g5
sg19
g5
sg20
F0.053350393508218734
sg21
g5
sg22
g5
sg23
g5
sg24
I80818
sg25
I860136
sg26
F0.051993683689925366
ssS'BELDEN TIMOTHY N'
p247
(dp248
g3
I7991
sg4
I2144013
sg6
I17355
sg7
I01
sg8
I4
sg9
F0.33385363370359317
sg10
S'tim.belden@enron.com'
p249
sg12
g5
sg13
g5
sg14
I5521
sg15
g5
sg16
I484
sg17
I210698
sg18
g5
sg19
I5249999
sg20
F0.03748108132003352
sg21
I228
sg22
I108
sg23
I157569
sg24
I213999
sg25
I5501630
sg26
F0.030980108472764018
ssS'DURAN WILLIAM D'
p250
(dp251
g3
I904
sg4
g5
sg6
I25785
sg7
I00
sg8
I5
sg9
F1.0
sg10
S'w.duran@enron.com'
p252
sg12
I1105218
sg13
g5
sg14
I599
sg15
g5
sg16
I12
sg17
I1568
sg18
g5
sg19
I750000
sg20
F0.05468985438795395
sg21
I106
sg22
I3
sg23
I189041
sg24
I210692
sg25
I2093263
sg26
F0.04719059935648577
ssS'THORN TERENCE H'
p253
(dp254
g3
I266
sg4
I16586
sg6
I46145
sg7
I00
sg8
I5
sg9
F1.0
sg10
S'terence.thorn@enron.com'
p255
sg12
I200000
sg13
g5
sg14
I73
sg15
g5
sg16
I41
sg17
I426629
sg18
g5
sg19
g5
sg20
F0.15780150032990745
sg21
I0
sg22
I0
sg23
I365320
sg24
I222093
sg25
I911453
sg26
F0.14472036461992668
ssS'FASTOW ANDREW S'
p256
(dp257
g3
g5
sg4
g5
sg6
I55921
sg7
I01
sg8
I10
sg9
F0.6044799288662835
sg10
S'andrew.fastow@enron.com'
p258
sg12
I1736055
sg13
g5
sg14
g5
sg15
g5
sg16
g5
sg17
I277464
sg18
g5
sg19
I1300000
sg20
F0.059672042567001524
sg21
g5
sg22
g5
sg23
I1794412
sg24
I440698
sg25
I2424083
sg26
F0.0
ssS'FOY JOE'
p259
(dp260
g3
I57
sg4
I181755
sg6
g5
sg7
I00
sg8
I10
sg9
F1.0
sg10
S'tracy.foy@enron.com'
p261
sg12
g5
sg13
g5
sg14
I2
sg15
g5
sg16
I13
sg17
g5
sg18
g5
sg19
g5
sg20
F0.012577897606948255
sg21
I0
sg22
I0
sg23
g5
sg24
g5
sg25
I181755
sg26
F0.011162753870628365
ssS'CALGER CHRISTOPHER F'
p262
(dp263
g3
I2598
sg4
g5
sg6
I35818
sg7
I01
sg8
I5
sg9
F0.9250938680841665
sg10
S'christopher.calger@enron.com'
p264
sg12
I375304
sg13
g5
sg14
I2188
sg15
g5
sg16
I144
sg17
I486
sg18
g5
sg19
I1250000
sg20
F0.0055215557648732524
sg21
I199
sg22
I25
sg23
I126027
sg24
I240189
sg25
I1639297
sg26
F0.0
ssS'RICE KENNETH D'
p265
(dp266
g3
I905
sg4
g5
sg6
I46950
sg7
I01
sg8
I4
sg9
F0.0
sg10
S'ken.rice@enron.com'
p267
sg12
I1617011
sg13
g5
sg14
I864
sg15
g5
sg16
I18
sg17
I174839
sg18
g5
sg19
I1750000
sg20
F0.733090454553672
sg21
I42
sg22
I4
sg23
I2748364
sg24
I420636
sg25
I505050
sg26
F0.6433769038509444
ssS'KAMINSKI WINCENTY J'
p268
(dp269
g3
I4607
sg4
g5
sg6
I83585
sg7
I00
sg8
I5
sg9
F1.0
sg10
S'vince.kaminski@enron.com'
p270
sg12
I323466
sg13
g5
sg14
I583
sg15
g5
sg16
I14368
sg17
I4669
sg18
g5
sg19
I400000
sg20
F0.03311018506007613
sg21
I41
sg22
I171
sg23
I126027
sg24
I275101
sg25
I1086821
sg26
F0.027628168491101106
ssS'COX DAVID'
p271
(dp272
g3
I102
sg4
g5
sg6
I27861
sg7
I00
sg8
I5
sg9
F0.9882290364132261
sg10
S'chip.cox@enron.com'
p273
sg12
g5
sg13
g5
sg14
I71
sg15
g5
sg16
I33
sg17
I494
sg18
g5
sg19
I800000
sg20
F0.01751779453769093
sg21
I0
sg22
I4
sg23
I378082
sg24
I314288
sg25
I1101393
sg26
F0.0038208007368118325
ssS'OVERDYKE JR JERE C'
p274
(dp275
g3
g5
sg4
g5
sg6
I18834
sg7
I00
sg8
I11
sg9
F1.0
sg10
S'jere.overdyke@enron.com'
p276
sg12
I135836
sg13
g5
sg14
g5
sg15
g5
sg16
g5
sg17
I176
sg18
g5
sg19
g5
sg20
F0.238612448485738
sg21
g5
sg22
g5
sg23
I2041016
sg24
I94941
sg25
I249787
sg26
F0.17118140298999573
ssS'PEREIRA PAULO V. FERRAZ'
p277
(dp278
g3
g5
sg4
g5
sg6
I27942
sg7
I00
sg8
I16
sg9
F0.9711076348324642
sg10
g5
sg12
g5
sg13
g5
sg14
g5
sg15
g5
sg16
g5
sg17
g5
sg18
I101250
sg19
g5
sg20
F0.0014311189650867407
sg21
g5
sg22
g5
sg23
g5
sg24
g5
sg25
I27942
sg26
F0.0
ssS'STABLER FRANK'
p279
(dp280
g3
g5
sg4
g5
sg6
I16514
sg7
I00
sg8
I12
sg9
F1.0
sg10
S'frank.stabler@enron.com'
p281
sg12
g5
sg13
g5
sg14
g5
sg15
g5
sg16
g5
sg17
I356071
sg18
g5
sg19
I500000
sg20
F0.018040381942876826
sg21
g5
sg22
g5
sg23
I511734
sg24
I239502
sg25
I1112087
sg26
F0.0
ssS'BLAKE JR. NORMAN P'
p282
(dp283
g3
g5
sg4
g5
sg6
I1279
sg7
I00
sg8
I16
sg9
F0.9675309740422431
sg10
g5
sg12
g5
sg13
g5
sg14
g5
sg15
g5
sg16
g5
sg17
g5
sg18
I113784
sg19
g5
sg20
F0.0014311189650867407
sg21
g5
sg22
g5
sg23
g5
sg24
g5
sg25
I1279
sg26
F0.0
ssS'SHERRICK JEFFREY B'
p284
(dp285
g3
I613
sg4
g5
sg6
g5
sg7
I00
sg8
I11
sg9
F1.0
sg10
S'jeffrey.sherrick@enron.com'
p286
sg12
g5
sg13
g5
sg14
I583
sg15
g5
sg16
I25
sg17
g5
sg18
g5
sg19
g5
sg20
F0.06090721965486901
sg21
I39
sg22
I18
sg23
I405999
sg24
g5
sg25
g5
sg26
F0.04636501438728074
ssS'PRENTICE JAMES'
p287
(dp288
g3
g5
sg4
I564348
sg6
g5
sg7
I00
sg8
I14
sg9
F1.0
sg10
S'james.prentice@enron.com'
p289
sg12
g5
sg13
g5
sg14
g5
sg15
g5
sg16
g5
sg17
g5
sg18
g5
sg19
g5
sg20
F0.03697264509233108
sg21
g5
sg22
g5
sg23
I208809
sg24
g5
sg25
I564348
sg26
F0.028805472159194625
ssS'GRAY RODNEY'
p290
(dp291
g3
g5
sg4
I93585
sg6
g5
sg7
I00
sg8
I15
sg9
F1.0
sg10
g5
sg12
I365625
sg13
g5
sg14
g5
sg15
g5
sg16
g5
sg17
I680833
sg18
g5
sg19
g5
sg20
F0.0014311189650867407
sg21
g5
sg22
g5
sg23
g5
sg24
I6615
sg25
I1146658
sg26
F0.0
ssS'PICKERING MARK R'
p292
(dp293
g3
I898
sg4
g5
sg6
I31653
sg7
I00
sg8
I7
sg9
F1.0
sg10
S'mark.pickering@enron.com'
p294
sg12
g5
sg13
g5
sg14
I728
sg15
I400000
sg16
I67
sg17
g5
sg18
g5
sg19
I300000
sg20
F0.002365810729234518
sg21
I7
sg22
I0
sg23
g5
sg24
I655037
sg25
I1386690
sg26
F0.0009360313363451367
ssS'NOLES JAMES L'
p295
(dp296
g3
g5
sg4
I774401
sg6
g5
sg7
I00
sg8
I15
sg9
F1.0
sg10
g5
sg12
g5
sg13
I-94556
sg14
g5
sg15
g5
sg16
g5
sg17
g5
sg18
g5
sg19
g5
sg20
F0.013398114134893892
sg21
g5
sg22
g5
sg23
I463261
sg24
g5
sg25
I774401
sg26
F0.0
ssS'KEAN STEVEN J'
p297
(dp298
g3
I12754
sg4
g5
sg6
I41953
sg7
I00
sg8
I5
sg9
F1.0
sg10
S'steven.kean@enron.com'
p299
sg12
I300000
sg13
g5
sg14
I3639
sg15
g5
sg16
I6759
sg17
I1231
sg18
g5
sg19
I1000000
sg20
F0.20115882564311502
sg21
I140
sg22
I387
sg23
I4131594
sg24
I404338
sg25
I1747522
sg26
F0.06572332424453124
ssS'FOWLER PEGGY'
p300
(dp301
g3
I517
sg4
g5
sg6
g5
sg7
I00
sg8
I11
sg9
F1.0
sg10
S'kulvinder.fowler@enron.com'
p302
sg12
g5
sg13
g5
sg14
I10
sg15
g5
sg16
I36
sg17
g5
sg18
g5
sg19
g5
sg20
F0.06260406267971955
sg21
I0
sg22
I0
sg23
I560170
sg24
g5
sg25
g5
sg26
F0.04305321603699453
ssS'WASAFF GEORGE'
p303
(dp304
g3
I400
sg4
I831299
sg6
g5
sg7
I00
sg8
I4
sg9
F0.8335443070483673
sg10
S'george.wasaff@enron.com'
p305
sg12
I200000
sg13
g5
sg14
I337
sg15
g5
sg16
I30
sg17
I1425
sg18
g5
sg19
I325000
sg20
F0.06817621864114487
sg21
I22
sg22
I7
sg23
I388167
sg24
I259996
sg25
I1034395
sg26
F0.054224030737243474
ssS'WHITE JR THOMAS E'
p306
(dp307
g3
g5
sg4
g5
sg6
I81353
sg7
I00
sg8
I11
sg9
F1.0
sg10
S'thomas.white@enron.com'
p308
sg12
g5
sg13
g5
sg14
g5
sg15
g5
sg16
g5
sg17
I1085463
sg18
g5
sg19
I450000
sg20
F0.4929613309013648
sg21
g5
sg22
g5
sg23
I13847074
sg24
I317543
sg25
I1934359
sg26
F0.0421584314457644
ssS'CHRISTODOULOU DIOMEDES'
p309
(dp310
g3
g5
sg4
g5
sg6
g5
sg7
I00
sg8
I16
sg9
F1.0
sg10
S'diomedes.christodoulou@enron.com'
p311
sg12
g5
sg13
g5
sg14
g5
sg15
g5
sg16
g5
sg17
g5
sg18
g5
sg19
g5
sg20
F0.19869999364170718
sg21
g5
sg22
g5
sg23
I950730
sg24
g5
sg25
g5
sg26
F0.16664968908600072
ssS'ALLEN PHILLIP K'
p312
(dp313
g3
I2902
sg4
I2869717
sg6
I13868
sg7
I00
sg8
I2
sg9
F0.12080033420975886
sg10
S'phillip.allen@enron.com'
p314
sg12
I304805
sg13
I-126027
sg14
I1407
sg15
g5
sg16
I2195
sg17
I152
sg18
g5
sg19
I4175000
sg20
F0.05756653560707269
sg21
I47
sg22
I65
sg23
I126027
sg24
I201955
sg25
I4484442
sg26
F0.05621586823715897
ssS'SHARP VICTORIA T'
p315
(dp316
g3
I3136
sg4
I187469
sg6
I116337
sg7
I00
sg8
I4
sg9
F1.0
sg10
S'vicki.sharp@enron.com'
p317
sg12
I422158
sg13
g5
sg14
I2477
sg15
g5
sg16
I136
sg17
I2401
sg18
g5
sg19
I600000
sg20
F0.017469206664542474
sg21
I24
sg22
I6
sg23
I213063
sg24
I248146
sg25
I1576511
sg26
F0.009135812757849037
ssS'JAEDICKE ROBERT'
p318
(dp319
g3
g5
sg4
g5
sg6
g5
sg7
I00
sg8
I13
sg9
F0.9928660826746826
sg10
g5
sg12
g5
sg13
I-44093
sg14
g5
sg15
g5
sg16
g5
sg17
g5
sg18
I108750
sg19
g5
sg20
F0.015444354924903498
sg21
g5
sg22
g5
sg23
I44093
sg24
g5
sg25
I83750
sg26
F0.014033319309223306
ssS'WINOKUR JR. HERBERT S'
p320
(dp321
g3
g5
sg4
g5
sg6
I1413
sg7
I00
sg8
I16
sg9
F0.9928660826746826
sg10
g5
sg12
g5
sg13
g5
sg14
g5
sg15
g5
sg16
g5
sg17
g5
sg18
I108579
sg19
g5
sg20
F0.0014311189650867407
sg21
g5
sg22
g5
sg23
g5
sg24
g5
sg25
I84992
sg26
F0.0
ssS'BROWN MICHAEL'
p322
(dp323
g3
I1486
sg4
g5
sg6
I49288
sg7
I00
sg8
I12
sg9
F1.0
sg10
S'michael.brown@enron.com'
p324
sg12
g5
sg13
g5
sg14
I761
sg15
g5
sg16
I41
sg17
g5
sg18
g5
sg19
g5
sg20
F0.0014311189650867407
sg21
I13
sg22
I1
sg23
g5
sg24
g5
sg25
I49288
sg26
F0.0
ssS'BADUM JAMES P'
p325
(dp326
g3
g5
sg4
I178980
sg6
I3486
sg7
I00
sg8
I15
sg9
F1.0
sg10
g5
sg12
g5
sg13
g5
sg14
g5
sg15
g5
sg16
g5
sg17
g5
sg18
g5
sg19
g5
sg20
F0.009799041270708228
sg21
g5
sg22
g5
sg23
g5
sg24
g5
sg25
I182466
sg26
F0.00837991496084777
ssS'HUGHES JAMES A'
p327
(dp328
g3
I719
sg4
g5
sg6
g5
sg7
I00
sg8
I11
sg9
F1.0
sg10
S'james.hughes@enron.com'
p329
sg12
g5
sg13
g5
sg14
I589
sg15
g5
sg16
I34
sg17
g5
sg18
g5
sg19
g5
sg20
F0.03773064187891026
sg21
I35
sg22
I5
sg23
I363428
sg24
g5
sg25
g5
sg26
F0.024538920545702565
ssS'REYNOLDS LAWRENCE'
p330
(dp331
g3
g5
sg4
I51365
sg6
I8409
sg7
I00
sg8
I8
sg9
F0.9429286613974602
sg10
g5
sg12
I156250
sg13
I-140264
sg14
g5
sg15
g5
sg16
g5
sg17
I202052
sg18
g5
sg19
I100000
sg20
F0.13846031359074218
sg21
g5
sg22
g5
sg23
I201483
sg24
I76399
sg25
I394475
sg26
F0.13523575846426114
ssS'DIMICHELE RICHARD G'
p332
(dp333
g3
g5
sg4
g5
sg6
I35812
sg7
I00
sg8
I10
sg9
F1.0
sg10
S'richard.dimichele@enron.com'
p334
sg12
I694862
sg13
g5
sg14
g5
sg15
g5
sg16
g5
sg17
I374689
sg18
g5
sg19
I1000000
sg20
F0.2713999477509965
sg21
g5
sg22
g5
sg23
I126027
sg24
I262788
sg25
I2368151
sg26
F0.26625944092165965
ssS'BHATNAGAR SANJAY'
p335
(dp336
g3
I523
sg4
g5
sg6
g5
sg7
I00
sg8
I8
sg9
F1.0
sg10
S'sanjay.bhatnagar@enron.com'
p337
sg12
g5
sg13
I15456290
sg14
I463
sg15
g5
sg16
I29
sg17
I137864
sg18
I137864
sg19
g5
sS'total_stock_value'
p338
F0.0014311189650867407
sg21
I0
sg22
I1
sg23
I-2604490
sg24
g5
sg25
I15456290
sg26
F0.08465463765530748
ssS'CARTER REBECCA C'
p339
(dp340
g3
I312
sg4
g5
sg6
g5
sg7
I00
sg8
I6
sg9
F0.9544022833101148
sg10
S'rebecca.carter@enron.com'
p341
sg12
I75000
sg13
I-307301
sg14
I196
sg15
g5
sg16
I15
sg17
I540
sg18
g5
sg19
I300000
sg20
F0.0014311189650867407
sg21
I29
sg22
I7
sg23
I307301
sg24
I261809
sg25
I477557
sg26
F0.0
ssS'BUCHANAN HAROLD G'
p342
(dp343
g3
I1088
sg4
g5
sg6
I600
sg7
I00
sg8
I5
sg9
F1.0
sg10
S'john.buchanan@enron.com'
p344
sg12
I304805
sg13
g5
sg14
I23
sg15
g5
sg16
I125
sg17
I1215
sg18
g5
sg19
I500000
sg20
F0.03435873436152889
sg21
I0
sg22
I0
sg23
I189041
sg24
I248017
sg25
I1054637
sg26
F0.0268303413787347
ssS'YEAP SOON'
p345
(dp346
g3
g5
sg4
g5
sg6
I55097
sg7
I00
sg8
I16
sg9
F1.0
sg10
g5
sg12
g5
sg13
g5
sg14
g5
sg15
g5
sg16
g5
sg17
g5
sg18
g5
sg19
g5
sg20
F0.007687432426910386
sg21
g5
sg22
g5
sg23
g5
sg24
g5
sg25
I55097
sg26
F0.006265279822599342
ssS'MURRAY JULIA H'
p347
(dp348
g3
I2192
sg4
g5
sg6
I57580
sg7
I00
sg8
I5
sg9
F1.0
sg10
S'julia.murray@enron.com'
p349
sg12
I125000
sg13
g5
sg14
I395
sg15
g5
sg16
I45
sg17
I330
sg18
g5
sg19
I400000
sg20
F0.020822808530316803
sg21
I11
sg22
I2
sg23
I196983
sg24
I229284
sg25
I812194
sg26
F0.013016874696743789
ssS'GARLAND C KEVIN'
p350
(dp351
g3
I209
sg4
g5
sg6
I48405
sg7
I00
sg8
I5
sg9
F1.0
sg10
S'kevin.garland@enron.com'
p352
sg12
I375304
sg13
g5
sg14
I178
sg15
g5
sg16
I44
sg17
I60814
sg18
g5
sg19
I850000
sg20
F0.03051740372501185
sg21
I10
sg22
I27
sg23
I259907
sg24
I231946
sg25
I1566469
sg26
F0.02068012339830015
ssS'DODSON KEITH'
p353
(dp354
g3
I176
sg4
g5
sg6
I28164
sg7
I00
sg8
I9
sg9
F1.0
sg10
S'keith.dodson@enron.com'
p355
sg12
g5
sg13
g5
sg14
I114
sg15
g5
sg16
I14
sg17
I774
sg18
g5
sg19
I70000
sg20
F0.0014311189650867407
sg21
I10
sg22
I3
sg23
g5
sg24
I221003
sg25
I319941
sg26
F0.0
ssS'YEAGER F SCOTT'
p356
(dp357
g3
g5
sg4
g5
sg6
I53947
sg7
I01
sg8
I12
sg9
F1.0
sg10
S'scott.yeager@enron.com'
p358
sg12
g5
sg13
g5
sg14
g5
sg15
g5
sg16
g5
sg17
I147950
sg18
g5
sg19
g5
sg20
F0.38717267815285716
sg21
g5
sg22
g5
sg23
I3576206
sg24
I158403
sg25
I360300
sg26
F0.2700557341361573
ssS'HIRKO JOSEPH'
p359
(dp360
g3
g5
sg4
I10259
sg6
I77978
sg7
I01
sg8
I13
sg9
F1.0
sg10
S'joe.hirko@enron.com'
p361
sg12
g5
sg13
g5
sg14
g5
sg15
g5
sg16
g5
sg17
I2856
sg18
g5
sg19
g5
sg20
F1.0
sg21
g5
sg22
g5
sg23
g5
sg24
g5
sg25
I91093
sg26
F1.0
ssS'DIETRICH JANET R'
p362
(dp363
g3
I2572
sg4
g5
sg6
I3475
sg7
I00
sg8
I5
sg9
F1.0
sg10
S'janet.dietrich@enron.com'
p364
sg12
I556416
sg13
g5
sg14
I1902
sg15
g5
sg16
I63
sg17
I473
sg18
g5
sg19
I600000
sg20
F0.06196592896297153
sg21
I305
sg22
I14
sg23
I315068
sg24
I250100
sg25
I1410464
sg26
F0.05038080269221308
ssS'DERRICK JR. JAMES V'
p365
(dp366
g3
I2181
sg4
g5
sg6
I51124
sg7
I00
sg8
I3
sg9
F0.6336020061716946
sg10
S'james.derrick@enron.com'
p367
sg12
I484000
sg13
I-1787380
sg14
I1401
sg15
g5
sg16
I909
sg17
I7482
sg18
g5
sg19
I800000
sg20
F0.2880870097481165
sg21
I64
sg22
I20
sg23
I1787380
sg24
I492375
sg25
I550981
sg26
F0.2870667174065555
ssS'FREVERT MARK A'
p368
(dp369
g3
I3275
sg4
I6426990
sg6
I86987
sg7
I00
sg8
I2
sg9
F0.039200875702619514
sg10
S'mark.frevert@enron.com'
p370
sg12
I1617011
sg13
g5
sg14
I2979
sg15
I2000000
sg16
I21
sg17
I7427621
sg18
g5
sg19
I2000000
sg20
F0.4760208784395354
sg21
I242
sg22
I6
sg23
I4188667
sg24
I1060932
sg25
I17252530
sg26
F0.33912423766654065
ssS'PAI LOU L'
p371
(dp372
g3
g5
sg4
g5
sg6
I32047
sg7
I00
sg8
I11
sg9
F1.0
sg10
S'lou.pai@enron.com'
p373
sg12
g5
sg13
g5
sg14
g5
sg15
g5
sg16
g5
sg17
I1829457
sg18
g5
sg19
I1000000
sg20
F0.7744856022642144
sg21
g5
sg22
g5
sg23
I8453763
sg24
I261879
sg25
I3123383
sg26
F0.4993868243919664
ssS'BAY FRANKLIN R'
p374
(dp375
g3
g5
sg4
I260455
sg6
I129142
sg7
I00
sg8
I9
sg9
F0.9424603910642264
sg10
S'frank.bay@enron.com'
p376
sg12
g5
sg13
I-82782
sg14
g5
sg15
g5
sg16
g5
sg17
I69
sg18
g5
sg19
I400000
sg20
F0.003476353593394542
sg21
g5
sg22
g5
sg23
I145796
sg24
I239671
sg25
I827696
sg26
F0.0
ssS'HAYSLETT RODERICK J'
p377
(dp378
g3
I2649
sg4
g5
sg6
g5
sg7
I00
sg8
I12
sg9
F1.0
sg10
S'rod.hayslett@enron.com'
p379
sg12
g5
sg13
g5
sg14
I571
sg15
g5
sg16
I1061
sg17
g5
sg18
g5
sg19
g5
sg20
F0.012682700708081428
sg21
I35
sg22
I38
sg23
I346663
sg24
g5
sg25
g5
sg26
F0.0
ssS'FUGH JOHN L'
p380
(dp381
g3
g5
sg4
I50591
sg6
g5
sg7
I00
sg8
I16
sg9
F1.0
sg10
g5
sg12
g5
sg13
g5
sg14
g5
sg15
g5
sg16
g5
sg17
g5
sg18
g5
sg19
g5
sg20
F0.007155789566408247
sg21
g5
sg22
g5
sg23
g5
sg24
g5
sg25
I50591
sg26
F0.00573287502749783
ssS'FALLON JAMES B'
p382
(dp383
g3
I1755
sg4
g5
sg6
I95924
sg7
I00
sg8
I5
sg9
F1.0
sg10
S'jim.fallon@enron.com'
p384
sg12
I374347
sg13
g5
sg14
I1604
sg15
g5
sg16
I75
sg17
I401481
sg18
g5
sg19
I2500000
sg20
F0.07713339467890411
sg21
I42
sg22
I37
sg23
I1392142
sg24
I304588
sg25
I3676340
sg26
F0.030561497889362774
ssS'KOENIG MARK E'
p385
(dp386
g3
I2374
sg4
g5
sg6
I127017
sg7
I01
sg8
I5
sg9
F1.0
sg10
S'mark.koenig@enron.com'
p387
sg12
I300000
sg13
g5
sg14
I2271
sg15
g5
sg16
I61
sg17
I150458
sg18
g5
sg19
I700000
sg20
F0.06375001594441729
sg21
I53
sg22
I15
sg23
I1248318
sg24
I309946
sg25
I1587421
sg26
F0.02183369962436534
ssS'SAVAGE FRANK'
p388
(dp389
g3
g5
sg4
g5
sg6
g5
sg7
I00
sg8
I17
sg9
F0.9653907988446478
sg10
g5
sg12
g5
sg13
g5
sg14
g5
sg15
g5
sg16
g5
sg17
g5
sg18
I125034
sg19
g5
sg20
F0.0014311189650867407
sg21
g5
sg22
g5
sg23
g5
sg24
g5
sg25
I3750
sg26
F0.0
ssS'IZZO LAWRENCE L'
p390
(dp391
g3
I496
sg4
g5
sg6
I28093
sg7
I00
sg8
I6
sg9
F1.0
sg10
S'larry.izzo@enron.com'
p392
sg12
I312500
sg13
g5
sg14
I437
sg15
g5
sg16
I19
sg17
I1553729
sg18
g5
sg19
g5
sg20
F0.19032921513512574
sg21
I28
sg22
I5
sg23
I3654808
sg24
I85274
sg25
I1979596
sg26
F0.07037533302927537
ssS'TILNEY ELIZABETH A'
p393
(dp394
g3
I460
sg4
g5
sg6
g5
sg7
I00
sg8
I5
sg9
F0.8359199015176981
sg10
S'elizabeth.tilney@enron.com'
p395
sg12
I275000
sg13
g5
sg14
I379
sg15
g5
sg16
I19
sg17
I152055
sg18
g5
sg19
I300000
sg20
F0.03934205852959464
sg21
I10
sg22
I11
sg23
I576792
sg24
I247338
sg25
I399393
sg26
F0.019217602875687967
ssS'MARTIN AMANDA K'
p396
(dp397
g3
I1522
sg4
I85430
sg6
I8211
sg7
I00
sg8
I6
sg9
F1.0
sg10
S'a..martin@enron.com'
p398
sg12
I5145434
sg13
g5
sg14
I477
sg15
g5
sg16
I230
sg17
I2818454
sg18
g5
sg19
g5
sg20
F0.0686266869720917
sg21
I8
sg22
I0
sg23
g5
sg24
I349487
sg25
I8407016
sg26
F0.06729187067933032
ssS'BUY RICHARD B'
p399
(dp400
g3
I3523
sg4
I649584
sg6
g5
sg7
I00
sg8
I4
sg9
F0.80171647757981
sg10
S'rick.buy@enron.com'
p401
sg12
I769862
sg13
g5
sg14
I2333
sg15
g5
sg16
I1053
sg17
I400572
sg18
g5
sg19
I900000
sg20
F0.11322769306238849
sg21
I156
sg22
I71
sg23
I901657
sg24
I330546
sg25
I2355702
sg26
F0.08264992883067525
ssS'GRAMM WENDY L'
p402
(dp403
g3
g5
sg4
g5
sg6
g5
sg7
I00
sg8
I18
sg9
F1.0
sg10
g5
sg12
g5
sg13
g5
sg14
g5
sg15
g5
sg16
g5
sg17
g5
sg18
I119292
sg19
g5
sg20
F0.0014311189650867407
sg21
g5
sg22
g5
sg23
g5
sg24
g5
sg25
I119292
sg26
F0.0
ssS'CAUSEY RICHARD A'
p404
(dp405
g3
I1892
sg4
g5
sg6
I30674
sg7
I01
sg8
I5
sg9
F0.9329411771420157
sg10
S'richard.causey@enron.com'
p406
sg12
I350000
sg13
g5
sg14
I1585
sg15
g5
sg16
I49
sg17
I307895
sg18
g5
sg19
I1000000
sg20
F0.0826401501297121
sg21
I58
sg22
I12
sg23
I2502063
sg24
I415189
sg25
I1868758
sg26
F0.0
ssS'TAYLOR MITCHELL S'
p407
(dp408
g3
I533
sg4
I227449
sg6
g5
sg7
I00
sg8
I7
sg9
F1.0
sg10
S'mitchell.taylor@enron.com'
p409
sg12
g5
sg13
g5
sg14
I300
sg15
g5
sg16
I29
sg17
g5
sg18
g5
sg19
I600000
sg20
F0.1229835018367482
sg21
I0
sg22
I0
sg23
I563798
sg24
I265214
sg25
I1092663
sg26
F0.10340126705840565
ssS'DONAHUE JR JEFFREY M'
p410
(dp411
g3
I865
sg4
g5
sg6
I96268
sg7
I00
sg8
I5
sg9
F0.9143929920961903
sg10
S'jeff.donahue@enron.com'
p412
sg12
g5
sg13
g5
sg14
I772
sg15
g5
sg16
I22
sg17
I891
sg18
g5
sg19
I800000
sg20
F0.03651656172995159
sg21
I188
sg22
I11
sg23
I315068
sg24
I278601
sg25
I875760
sg26
F0.024894962189508544
ssS'GLISAN JR BEN F'
p413
(dp414
g3
I873
sg4
g5
sg6
I125978
sg7
I01
sg8
I5
sg9
F1.0
sg10
S'ben.glisan@enron.com'
p415
sg12
I71023
sg13
g5
sg14
I874
sg15
g5
sg16
I16
sg17
I200308
sg18
g5
sg19
I600000
sg20
F0.02670025342616722
sg21
I52
sg22
I6
sg23
I393818
sg24
I274975
sg25
I1272284
sg26
F0.012504947009146181
ss.